
Simon.elf:     file format elf32-avr

Sections:
Idx Name          Size      VMA       LMA       File off  Algn
  0 .text         00003416  00000000  00000000  00000094  2**1
                  CONTENTS, ALLOC, LOAD, READONLY, CODE
  1 .data         0000002e  00800060  00003416  000034aa  2**0
                  CONTENTS, ALLOC, LOAD, DATA
  2 .bss          00000069  0080008e  0080008e  000034d8  2**0
                  ALLOC
  3 .comment      00000030  00000000  00000000  000034d8  2**0
                  CONTENTS, READONLY
  4 .note.gnu.avr.deviceinfo 0000003c  00000000  00000000  00003508  2**2
                  CONTENTS, READONLY
  5 .debug_aranges 00000268  00000000  00000000  00003548  2**3
                  CONTENTS, READONLY, DEBUGGING
  6 .debug_info   00007203  00000000  00000000  000037b0  2**0
                  CONTENTS, READONLY, DEBUGGING
  7 .debug_abbrev 00000cb7  00000000  00000000  0000a9b3  2**0
                  CONTENTS, READONLY, DEBUGGING
  8 .debug_line   00002027  00000000  00000000  0000b66a  2**0
                  CONTENTS, READONLY, DEBUGGING
  9 .debug_frame  00000944  00000000  00000000  0000d694  2**2
                  CONTENTS, READONLY, DEBUGGING
 10 .debug_str    00000d2e  00000000  00000000  0000dfd8  2**0
                  CONTENTS, READONLY, DEBUGGING
 11 .debug_loc    000040ab  00000000  00000000  0000ed06  2**0
                  CONTENTS, READONLY, DEBUGGING
 12 .debug_ranges 000001d0  00000000  00000000  00012db1  2**0
                  CONTENTS, READONLY, DEBUGGING

Disassembly of section .text:

00000000 <__vectors>:
       0:	0c 94 2c 06 	jmp	0xc58	; 0xc58 <__ctors_end>
       4:	0c 94 54 06 	jmp	0xca8	; 0xca8 <__bad_interrupt>
       8:	0c 94 54 06 	jmp	0xca8	; 0xca8 <__bad_interrupt>
       c:	0c 94 54 06 	jmp	0xca8	; 0xca8 <__bad_interrupt>
      10:	0c 94 54 06 	jmp	0xca8	; 0xca8 <__bad_interrupt>
      14:	0c 94 54 06 	jmp	0xca8	; 0xca8 <__bad_interrupt>
      18:	0c 94 54 06 	jmp	0xca8	; 0xca8 <__bad_interrupt>
      1c:	0c 94 54 06 	jmp	0xca8	; 0xca8 <__bad_interrupt>
      20:	0c 94 54 06 	jmp	0xca8	; 0xca8 <__bad_interrupt>
      24:	0c 94 54 06 	jmp	0xca8	; 0xca8 <__bad_interrupt>
      28:	0c 94 54 06 	jmp	0xca8	; 0xca8 <__bad_interrupt>
      2c:	0c 94 54 06 	jmp	0xca8	; 0xca8 <__bad_interrupt>
      30:	0c 94 54 06 	jmp	0xca8	; 0xca8 <__bad_interrupt>
      34:	0c 94 54 06 	jmp	0xca8	; 0xca8 <__bad_interrupt>
      38:	0c 94 54 06 	jmp	0xca8	; 0xca8 <__bad_interrupt>
      3c:	0c 94 54 06 	jmp	0xca8	; 0xca8 <__bad_interrupt>
      40:	0c 94 54 06 	jmp	0xca8	; 0xca8 <__bad_interrupt>
      44:	0c 94 54 06 	jmp	0xca8	; 0xca8 <__bad_interrupt>
      48:	0c 94 54 06 	jmp	0xca8	; 0xca8 <__bad_interrupt>
      4c:	0c 94 54 06 	jmp	0xca8	; 0xca8 <__bad_interrupt>
      50:	0c 94 54 06 	jmp	0xca8	; 0xca8 <__bad_interrupt>
      54:	05 a8       	ldd	r0, Z+53	; 0x35
      56:	4c cd       	rjmp	.-1384   	; 0xfffffaf0 <__eeprom_end+0xff7efaf0>
      58:	b2 d4       	rcall	.+2404   	; 0x9be <__stack+0x55f>
      5a:	4e b9       	out	0x0e, r20	; 14
      5c:	38 36       	cpi	r19, 0x68	; 104
      5e:	a9 02       	muls	r26, r25
      60:	0c 50       	subi	r16, 0x0C	; 12
      62:	b9 91       	ld	r27, Y+
      64:	86 88       	ldd	r8, Z+22	; 0x16
      66:	08 3c       	cpi	r16, 0xC8	; 200
      68:	a6 aa       	std	Z+54, r10	; 0x36
      6a:	aa 2a       	or	r10, r26
      6c:	be 00       	.word	0x00be	; ????
      6e:	00 00       	nop
      70:	80 3f       	cpi	r24, 0xF0	; 240

00000072 <BigFont>:
      72:	10 10 20 5f 00 00 00 00 00 00 00 00 00 00 00 00     .. _............
	...
      9a:	07 00 0f 80 0f 80 0f 80 0f 80 0f 80 07 00 07 00     ................
      aa:	00 00 00 00 07 00 07 00 07 00 00 00 00 00 0e 38     ...............8
      ba:	0e 38 0e 38 0e 38 06 30 00 00 00 00 00 00 00 00     .8.8.8.0........
	...
      d6:	00 00 0c 30 0c 30 0c 30 7f fe 7f fe 0c 30 0c 30     ...0.0.0.....0.0
      e6:	0c 30 0c 30 7f fe 7f fe 0c 30 0c 30 0c 30 00 00     .0.0.....0.0.0..
      f6:	00 00 02 40 02 40 0f f8 1f f8 1a 40 1a 40 1f f0     ...@.@.....@.@..
     106:	0f f8 02 58 02 58 1f f8 1f f0 02 40 02 40 00 00     ...X.X.....@.@..
     116:	00 00 00 00 00 00 0e 10 0e 30 0e 70 00 e0 01 c0     .........0.p....
     126:	03 80 07 00 0e 70 0c 70 08 70 00 00 00 00 00 00     .....p.p.p......
     136:	00 00 00 00 0f 00 19 80 19 80 19 80 0f 00 0f 08     ................
     146:	0f 98 19 f8 18 f0 18 e0 19 f0 0f 98 00 00 00 00     ................
     156:	00 00 00 00 07 00 07 00 07 00 0e 00 00 00 00 00     ................
	...
     17a:	00 f0 01 c0 03 80 07 00 0e 00 0e 00 0e 00 0e 00     ................
     18a:	07 00 03 80 01 c0 00 f0 00 00 00 00 00 00 00 00     ................
     19a:	0f 00 03 80 01 c0 00 e0 00 70 00 70 00 70 00 70     .........p.p.p.p
     1aa:	00 e0 01 c0 03 80 0f 00 00 00 00 00 00 00 00 00     ................
     1ba:	01 80 11 88 09 90 07 e0 07 e0 3f fc 3f fc 07 e0     ..........?.?...
     1ca:	07 e0 09 90 11 88 01 80 00 00 00 00 00 00 00 00     ................
     1da:	00 00 00 00 01 80 01 80 01 80 0f f0 0f f0 01 80     ................
     1ea:	01 80 01 80 00 00 00 00 00 00 00 00 00 00 00 00     ................
	...
     20a:	00 00 07 00 07 00 07 00 0e 00 00 00 00 00 00 00     ................
	...
     222:	00 00 1f f8 1f f8 00 00 00 00 00 00 00 00 00 00     ................
	...
     24a:	00 00 07 00 07 00 07 00 00 00 00 00 00 00 00 00     ................
     25a:	00 02 00 06 00 0e 00 1c 00 38 00 70 00 e0 01 c0     .........8.p....
     26a:	03 80 07 00 0e 00 1c 00 00 00 00 00 00 00 00 00     ................
     27a:	0f f0 1c 38 1c 78 1c f8 1c f8 1d b8 1d b8 1f 38     ...8.x.........8
     28a:	1f 38 1e 38 1c 38 0f f0 00 00 00 00 00 00 00 00     .8.8.8..........
     29a:	01 80 01 80 03 80 1f 80 1f 80 03 80 03 80 03 80     ................
     2aa:	03 80 03 80 03 80 1f f0 00 00 00 00 00 00 00 00     ................
     2ba:	0f e0 1c 70 1c 38 00 38 00 70 00 e0 01 c0 03 80     ...p.8.8.p......
     2ca:	07 00 0e 38 1c 38 1f f8 00 00 00 00 00 00 00 00     ...8.8..........
     2da:	0f e0 1c 70 1c 38 00 38 00 70 03 c0 03 c0 00 70     ...p.8.8.p.....p
     2ea:	00 38 1c 38 1c 70 0f e0 00 00 00 00 00 00 00 00     .8.8.p..........
     2fa:	00 e0 01 e0 03 e0 06 e0 0c e0 18 e0 1f f8 1f f8     ................
     30a:	00 e0 00 e0 00 e0 03 f8 00 00 00 00 00 00 00 00     ................
     31a:	1f f8 1c 00 1c 00 1c 00 1c 00 1f e0 1f f0 00 78     ...............x
     32a:	00 38 1c 38 1c 70 0f e0 00 00 00 00 00 00 00 00     .8.8.p..........
     33a:	03 e0 07 00 0e 00 1c 00 1c 00 1f f0 1f f8 1c 38     ...............8
     34a:	1c 38 1c 38 1c 38 0f f0 00 00 00 00 00 00 00 00     .8.8.8..........
     35a:	1f fc 1c 1c 1c 1c 1c 1c 00 1c 00 38 00 70 00 e0     ...........8.p..
     36a:	01 c0 03 80 03 80 03 80 00 00 00 00 00 00 00 00     ................
     37a:	0f f0 1c 38 1c 38 1c 38 1f 38 07 e0 07 e0 1c f8     ...8.8.8.8......
     38a:	1c 38 1c 38 1c 38 0f f0 00 00 00 00 00 00 00 00     .8.8.8..........
     39a:	0f f0 1c 38 1c 38 1c 38 1c 38 1f f8 0f f8 00 38     ...8.8.8.8.....8
     3aa:	00 38 00 70 00 e0 07 c0 00 00 00 00 00 00 00 00     .8.p............
     3ba:	00 00 00 00 03 80 03 80 03 80 00 00 00 00 03 80     ................
     3ca:	03 80 03 80 00 00 00 00 00 00 00 00 00 00 00 00     ................
     3da:	00 00 00 00 03 80 03 80 03 80 00 00 00 00 03 80     ................
     3ea:	03 80 03 80 07 00 00 00 00 00 00 00 00 00 00 70     ...............p
     3fa:	00 e0 01 c0 03 80 07 00 0e 00 1c 00 1c 00 0e 00     ................
     40a:	07 00 03 80 01 c0 00 e0 00 70 00 00 00 00 00 00     .........p......
     41a:	00 00 00 00 00 00 3f fc 3f fc 00 00 00 00 3f fc     ......?.?.....?.
     42a:	3f fc 00 00 00 00 00 00 00 00 00 00 00 00 1c 00     ?...............
     43a:	0e 00 07 00 03 80 01 c0 00 e0 00 70 00 70 00 e0     ...........p.p..
     44a:	01 c0 03 80 07 00 0e 00 1c 00 00 00 00 00 03 c0     ................
     45a:	0f f0 1e 78 18 38 00 38 00 70 00 e0 01 c0 01 c0     ...x.8.8.p......
     46a:	00 00 00 00 01 c0 01 c0 01 c0 00 00 00 00 0f f8     ................
     47a:	1c 1c 1c 1c 1c 1c 1c 1c 1c fc 1c fc 1c fc 1c fc     ................
     48a:	1c 00 1c 00 1c 00 1f f0 07 f8 00 00 00 00 00 00     ................
     49a:	03 c0 07 e0 0e 70 1c 38 1c 38 1c 38 1c 38 1f f8     .....p.8.8.8.8..
     4aa:	1c 38 1c 38 1c 38 1c 38 00 00 00 00 00 00 00 00     .8.8.8.8........
     4ba:	1f f0 0e 38 0e 38 0e 38 0e 38 0f f0 0f f0 0e 38     ...8.8.8.8.....8
     4ca:	0e 38 0e 38 0e 38 1f f0 00 00 00 00 00 00 00 00     .8.8.8..........
     4da:	07 f0 0e 38 1c 38 1c 00 1c 00 1c 00 1c 00 1c 00     ...8.8..........
     4ea:	1c 00 1c 38 0e 38 07 f0 00 00 00 00 00 00 00 00     ...8.8..........
     4fa:	1f e0 0e 70 0e 38 0e 38 0e 38 0e 38 0e 38 0e 38     ...p.8.8.8.8.8.8
     50a:	0e 38 0e 38 0e 70 1f e0 00 00 00 00 00 00 00 00     .8.8.p..........
     51a:	1f f8 0e 18 0e 08 0e 00 0e 30 0f f0 0f f0 0e 30     .........0.....0
     52a:	0e 00 0e 08 0e 18 1f f8 00 00 00 00 00 00 00 00     ................
     53a:	1f f8 0e 18 0e 08 0e 00 0e 30 0f f0 0f f0 0e 30     .........0.....0
     54a:	0e 00 0e 00 0e 00 1f 00 00 00 00 00 00 00 00 00     ................
     55a:	07 f0 0e 38 1c 38 1c 38 1c 00 1c 00 1c 00 1c f8     ...8.8.8........
     56a:	1c 38 1c 38 0e 38 07 f8 00 00 00 00 00 00 00 00     .8.8.8..........
     57a:	1c 70 1c 70 1c 70 1c 70 1c 70 1f f0 1f f0 1c 70     .p.p.p.p.p.....p
     58a:	1c 70 1c 70 1c 70 1c 70 00 00 00 00 00 00 00 00     .p.p.p.p........
     59a:	0f e0 03 80 03 80 03 80 03 80 03 80 03 80 03 80     ................
     5aa:	03 80 03 80 03 80 0f e0 00 00 00 00 00 00 00 00     ................
     5ba:	01 fc 00 70 00 70 00 70 00 70 00 70 00 70 38 70     ...p.p.p.p.p.p8p
     5ca:	38 70 38 70 38 70 0f e0 00 00 00 00 00 00 00 00     8p8p8p..........
     5da:	1e 38 0e 38 0e 70 0e e0 0f c0 0f 80 0f 80 0f c0     .8.8.p..........
     5ea:	0e e0 0e 70 0e 38 1e 38 00 00 00 00 00 00 00 00     ...p.8.8........
     5fa:	1f 00 0e 00 0e 00 0e 00 0e 00 0e 00 0e 00 0e 00     ................
     60a:	0e 08 0e 18 0e 38 1f f8 00 00 00 00 00 00 00 00     .....8..........
     61a:	1c 1c 1e 3c 1f 7c 1f fc 1f fc 1d dc 1c 9c 1c 1c     ...<.|..........
     62a:	1c 1c 1c 1c 1c 1c 1c 1c 00 00 00 00 00 00 00 00     ................
     63a:	1c 1c 1c 1c 1e 1c 1f 1c 1f 9c 1d dc 1c fc 1c 7c     ...............|
     64a:	1c 3c 1c 1c 1c 1c 1c 1c 00 00 00 00 00 00 00 00     .<..............
     65a:	03 e0 07 f0 0e 38 1c 1c 1c 1c 1c 1c 1c 1c 1c 1c     .....8..........
     66a:	1c 1c 0e 38 07 f0 03 e0 00 00 00 00 00 00 00 00     ...8............
     67a:	1f f0 0e 38 0e 38 0e 38 0e 38 0f f0 0f f0 0e 00     ...8.8.8.8......
     68a:	0e 00 0e 00 0e 00 1f 00 00 00 00 00 00 00 00 00     ................
     69a:	03 e0 0f 78 0e 38 1c 1c 1c 1c 1c 1c 1c 1c 1c 7c     ...x.8.........|
     6aa:	1c fc 0f f8 0f f8 00 38 00 fc 00 00 00 00 00 00     .......8........
     6ba:	1f f0 0e 38 0e 38 0e 38 0e 38 0f f0 0f f0 0e 70     ...8.8.8.8.....p
     6ca:	0e 38 0e 38 0e 38 1e 38 00 00 00 00 00 00 00 00     .8.8.8.8........
     6da:	0f f0 1c 38 1c 38 1c 38 1c 00 0f e0 07 f0 00 38     ...8.8.8.......8
     6ea:	1c 38 1c 38 1c 38 0f f0 00 00 00 00 00 00 00 00     .8.8.8..........
     6fa:	1f fc 19 cc 11 c4 01 c0 01 c0 01 c0 01 c0 01 c0     ................
     70a:	01 c0 01 c0 01 c0 07 f0 00 00 00 00 00 00 00 00     ................
     71a:	1c 70 1c 70 1c 70 1c 70 1c 70 1c 70 1c 70 1c 70     .p.p.p.p.p.p.p.p
     72a:	1c 70 1c 70 1c 70 0f e0 00 00 00 00 00 00 00 00     .p.p.p..........
     73a:	1c 70 1c 70 1c 70 1c 70 1c 70 1c 70 1c 70 1c 70     .p.p.p.p.p.p.p.p
     74a:	1c 70 0e e0 07 c0 03 80 00 00 00 00 00 00 00 00     .p..............
     75a:	1c 1c 1c 1c 1c 1c 1c 1c 1c 1c 1c 9c 1c 9c 1c 9c     ................
     76a:	0f f8 0f f8 07 70 07 70 00 00 00 00 00 00 00 00     .....p.p........
     77a:	1c 70 1c 70 1c 70 0e e0 07 c0 03 80 03 80 07 c0     .p.p.p..........
     78a:	0e e0 1c 70 1c 70 1c 70 00 00 00 00 00 00 00 00     ...p.p.p........
     79a:	1c 70 1c 70 1c 70 1c 70 1c 70 0e e0 07 c0 03 80     .p.p.p.p.p......
     7aa:	03 80 03 80 03 80 0f e0 00 00 00 00 00 00 00 00     ................
     7ba:	1f f8 1c 38 18 38 10 70 00 e0 01 c0 03 80 07 00     ...8.8.p........
     7ca:	0e 08 1c 18 1c 38 1f f8 00 00 00 00 00 00 00 00     .....8..........
     7da:	07 f0 07 00 07 00 07 00 07 00 07 00 07 00 07 00     ................
     7ea:	07 00 07 00 07 00 07 f0 00 00 00 00 00 00 00 00     ................
     7fa:	10 00 18 00 1c 00 0e 00 07 00 03 80 01 c0 00 e0     ................
     80a:	00 70 00 38 00 1c 00 07 00 00 00 00 00 00 00 00     .p.8............
     81a:	07 f0 00 70 00 70 00 70 00 70 00 70 00 70 00 70     ...p.p.p.p.p.p.p
     82a:	00 70 00 70 00 70 07 f0 00 00 00 00 00 00 01 80     .p.p.p..........
     83a:	03 c0 07 e0 0e 70 1c 38 00 00 00 00 00 00 00 00     .....p.8........
	...
     872:	7f ff 7f ff 00 00 00 00 1c 00 1c 00 07 00 07 00     ................
	...
     8a2:	0f e0 00 70 00 70 0f f0 1c 70 1c 70 1c 70 0f d8     ...p.p...p.p.p..
	...
     8ba:	1e 00 0e 00 0e 00 0e 00 0f f0 0e 38 0e 38 0e 38     ...........8.8.8
     8ca:	0e 38 0e 38 0e 38 1b f0 00 00 00 00 00 00 00 00     .8.8.8..........
	...
     8e2:	0f e0 1c 70 1c 70 1c 00 1c 00 1c 70 1c 70 0f e0     ...p.p.....p.p..
	...
     8fa:	00 f8 00 70 00 70 00 70 0f f0 1c 70 1c 70 1c 70     ...p.p.p...p.p.p
     90a:	1c 70 1c 70 1c 70 0f d8 00 00 00 00 00 00 00 00     .p.p.p..........
	...
     922:	0f e0 1c 70 1c 70 1f f0 1c 00 1c 70 1c 70 0f e0     ...p.p.....p.p..
	...
     93a:	03 e0 07 70 07 70 07 00 07 00 1f e0 1f e0 07 00     ...p.p..........
     94a:	07 00 07 00 07 00 1f c0 00 00 00 00 00 00 00 00     ................
	...
     962:	0f d8 1c 70 1c 70 1c 70 1c 70 0f f0 07 f0 00 70     ...p.p.p.p.....p
     972:	1c 70 0f e0 00 00 00 00 1e 00 0e 00 0e 00 0e 00     .p..............
     982:	0e f0 0f 38 0f 38 0e 38 0e 38 0e 38 0e 38 1e 38     ...8.8.8.8.8.8.8
	...
     99a:	01 c0 01 c0 01 c0 00 00 0f c0 01 c0 01 c0 01 c0     ................
     9aa:	01 c0 01 c0 01 c0 0f f8 00 00 00 00 00 00 00 00     ................
     9ba:	00 70 00 70 00 70 00 00 03 f0 00 70 00 70 00 70     .p.p.p.....p.p.p
     9ca:	00 70 00 70 00 70 1c 70 0c f0 07 e0 00 00 00 00     .p.p.p.p........
     9da:	1e 00 0e 00 0e 00 0e 00 0e 38 0e 70 0e e0 0f c0     .........8.p....
     9ea:	0e e0 0e 70 0e 38 1e 38 00 00 00 00 00 00 00 00     ...p.8.8........
     9fa:	0f c0 01 c0 01 c0 01 c0 01 c0 01 c0 01 c0 01 c0     ................
     a0a:	01 c0 01 c0 01 c0 0f f8 00 00 00 00 00 00 00 00     ................
	...
     a22:	1f f8 1c 9c 1c 9c 1c 9c 1c 9c 1c 9c 1c 9c 1c 9c     ................
	...
     a42:	1f e0 1c 70 1c 70 1c 70 1c 70 1c 70 1c 70 1c 70     ...p.p.p.p.p.p.p
	...
     a62:	0f e0 1c 70 1c 70 1c 70 1c 70 1c 70 1c 70 0f e0     ...p.p.p.p.p.p..
	...
     a82:	1b f0 0e 38 0e 38 0e 38 0e 38 0e 38 0f f0 0e 00     ...8.8.8.8.8....
     a92:	0e 00 1f 00 00 00 00 00 00 00 00 00 00 00 00 00     ................
     aa2:	1f b0 38 e0 38 e0 38 e0 38 e0 38 e0 1f e0 00 e0     ..8.8.8.8.8.....
     ab2:	00 e0 01 f0 00 00 00 00 00 00 00 00 00 00 00 00     ................
     ac2:	1e f0 0f f8 0f 38 0e 00 0e 00 0e 00 0e 00 1f 00     .....8..........
	...
     ae2:	0f e0 1c 30 1c 30 0f 80 03 e0 18 70 18 70 0f e0     ...0.0.....p.p..
	...
     afa:	00 00 01 00 03 00 07 00 1f f0 07 00 07 00 07 00     ................
     b0a:	07 00 07 70 07 70 03 e0 00 00 00 00 00 00 00 00     ...p.p..........
	...
     b22:	1c 70 1c 70 1c 70 1c 70 1c 70 1c 70 1c 70 0f d8     .p.p.p.p.p.p.p..
	...
     b42:	1c 70 1c 70 1c 70 1c 70 1c 70 0e e0 07 c0 03 80     .p.p.p.p.p......
	...
     b62:	1c 1c 1c 1c 1c 1c 1c 9c 1c 9c 0f f8 07 70 07 70     .............p.p
	...
     b82:	1c e0 1c e0 0f c0 07 80 07 80 0f c0 1c e0 1c e0     ................
	...
     ba2:	0e 38 0e 38 0e 38 0e 38 0e 38 07 f0 03 e0 00 e0     .8.8.8.8.8......
     bb2:	01 c0 1f 80 00 00 00 00 00 00 00 00 00 00 00 00     ................
     bc2:	1f e0 18 e0 11 c0 03 80 07 00 0e 20 1c 60 1f e0     ........... .`..
	...
     bda:	01 f8 03 80 03 80 03 80 07 00 1c 00 1c 00 07 00     ................
     bea:	03 80 03 80 03 80 01 f8 00 00 00 00 00 00 01 c0     ................
     bfa:	01 c0 01 c0 01 c0 01 c0 01 c0 01 c0 01 c0 01 c0     ................
     c0a:	01 c0 01 c0 01 c0 01 c0 01 c0 00 00 00 00 00 00     ................
     c1a:	1f 80 01 c0 01 c0 01 c0 00 e0 00 38 00 38 00 e0     ...........8.8..
     c2a:	01 c0 01 c0 01 c0 1f 80 00 00 00 00 00 00 00 00     ................
     c3a:	1f 1c 3b 9c 39 dc 38 f8 00 00 00 00 00 00 00 00     ..;.9.8.........
	...

00000c56 <__ctors_start>:
     c56:	6a 0f       	add	r22, r26

00000c58 <__ctors_end>:
     c58:	11 24       	eor	r1, r1
     c5a:	1f be       	out	0x3f, r1	; 63
     c5c:	cf e5       	ldi	r28, 0x5F	; 95
     c5e:	d4 e0       	ldi	r29, 0x04	; 4
     c60:	de bf       	out	0x3e, r29	; 62
     c62:	cd bf       	out	0x3d, r28	; 61

00000c64 <__do_copy_data>:
     c64:	10 e0       	ldi	r17, 0x00	; 0
     c66:	a0 e6       	ldi	r26, 0x60	; 96
     c68:	b0 e0       	ldi	r27, 0x00	; 0
     c6a:	e6 e1       	ldi	r30, 0x16	; 22
     c6c:	f4 e3       	ldi	r31, 0x34	; 52
     c6e:	02 c0       	rjmp	.+4      	; 0xc74 <__do_copy_data+0x10>
     c70:	05 90       	lpm	r0, Z+
     c72:	0d 92       	st	X+, r0
     c74:	ae 38       	cpi	r26, 0x8E	; 142
     c76:	b1 07       	cpc	r27, r17
     c78:	d9 f7       	brne	.-10     	; 0xc70 <__do_copy_data+0xc>

00000c7a <__do_clear_bss>:
     c7a:	20 e0       	ldi	r18, 0x00	; 0
     c7c:	ae e8       	ldi	r26, 0x8E	; 142
     c7e:	b0 e0       	ldi	r27, 0x00	; 0
     c80:	01 c0       	rjmp	.+2      	; 0xc84 <.do_clear_bss_start>

00000c82 <.do_clear_bss_loop>:
     c82:	1d 92       	st	X+, r1

00000c84 <.do_clear_bss_start>:
     c84:	a7 3f       	cpi	r26, 0xF7	; 247
     c86:	b2 07       	cpc	r27, r18
     c88:	e1 f7       	brne	.-8      	; 0xc82 <.do_clear_bss_loop>

00000c8a <__do_global_ctors>:
     c8a:	16 e0       	ldi	r17, 0x06	; 6
     c8c:	cc e2       	ldi	r28, 0x2C	; 44
     c8e:	d6 e0       	ldi	r29, 0x06	; 6
     c90:	04 c0       	rjmp	.+8      	; 0xc9a <__do_global_ctors+0x10>
     c92:	21 97       	sbiw	r28, 0x01	; 1
     c94:	fe 01       	movw	r30, r28
     c96:	0e 94 79 19 	call	0x32f2	; 0x32f2 <__tablejump2__>
     c9a:	cb 32       	cpi	r28, 0x2B	; 43
     c9c:	d1 07       	cpc	r29, r17
     c9e:	c9 f7       	brne	.-14     	; 0xc92 <__do_global_ctors+0x8>
     ca0:	0e 94 f7 0d 	call	0x1bee	; 0x1bee <main>
     ca4:	0c 94 09 1a 	jmp	0x3412	; 0x3412 <_exit>

00000ca8 <__bad_interrupt>:
     ca8:	0c 94 00 00 	jmp	0	; 0x0 <__vectors>

00000cac <fastbitmap_1bit>:
		r20:r21 fg color 
		r18:r19 bg color
	*/

	/* this block sets up the TOGGLE_WR_FAST registers r30:r31 */
	in r26, _SFR_IO_ADDR(WR_PORT)
     cac:	a5 b3       	in	r26, 0x15	; 21
	mov r27, r26
     cae:	ba 2f       	mov	r27, r26
	set
     cb0:	68 94       	set
	bld r26,WR_PIN
     cb2:	a7 f9       	bld	r26, 7
	clt
     cb4:	e8 94       	clt
	bld r27,WR_PIN
     cb6:	b7 f9       	bld	r27, 7
	
	movw r30, r22
     cb8:	fb 01       	movw	r30, r22

00000cba <FB1BIT_LOOP>:

FB1BIT_LOOP:

	LPM r0, Z+
     cba:	05 90       	lpm	r0, Z+

	PLOT_MONO_PIXEL r0,7
     cbc:	07 fa       	bst	r0, 7
     cbe:	1e f4       	brtc	.+6      	; 0xcc6 <FB1BIT_LOOP+0xc>
     cc0:	4b bb       	out	0x1b, r20	; 27
     cc2:	52 bb       	out	0x12, r21	; 18
     cc4:	02 c0       	rjmp	.+4      	; 0xcca <FB1BIT_LOOP+0x10>
     cc6:	2b bb       	out	0x1b, r18	; 27
     cc8:	32 bb       	out	0x12, r19	; 18
     cca:	b5 bb       	out	0x15, r27	; 21
     ccc:	a5 bb       	out	0x15, r26	; 21
	PLOT_MONO_PIXEL r0,6
     cce:	06 fa       	bst	r0, 6
     cd0:	1e f4       	brtc	.+6      	; 0xcd8 <FB1BIT_LOOP+0x1e>
     cd2:	4b bb       	out	0x1b, r20	; 27
     cd4:	52 bb       	out	0x12, r21	; 18
     cd6:	02 c0       	rjmp	.+4      	; 0xcdc <FB1BIT_LOOP+0x22>
     cd8:	2b bb       	out	0x1b, r18	; 27
     cda:	32 bb       	out	0x12, r19	; 18
     cdc:	b5 bb       	out	0x15, r27	; 21
     cde:	a5 bb       	out	0x15, r26	; 21
	PLOT_MONO_PIXEL r0,5
     ce0:	05 fa       	bst	r0, 5
     ce2:	1e f4       	brtc	.+6      	; 0xcea <FB1BIT_LOOP+0x30>
     ce4:	4b bb       	out	0x1b, r20	; 27
     ce6:	52 bb       	out	0x12, r21	; 18
     ce8:	02 c0       	rjmp	.+4      	; 0xcee <FB1BIT_LOOP+0x34>
     cea:	2b bb       	out	0x1b, r18	; 27
     cec:	32 bb       	out	0x12, r19	; 18
     cee:	b5 bb       	out	0x15, r27	; 21
     cf0:	a5 bb       	out	0x15, r26	; 21
	PLOT_MONO_PIXEL r0,4
     cf2:	04 fa       	bst	r0, 4
     cf4:	1e f4       	brtc	.+6      	; 0xcfc <FB1BIT_LOOP+0x42>
     cf6:	4b bb       	out	0x1b, r20	; 27
     cf8:	52 bb       	out	0x12, r21	; 18
     cfa:	02 c0       	rjmp	.+4      	; 0xd00 <FB1BIT_LOOP+0x46>
     cfc:	2b bb       	out	0x1b, r18	; 27
     cfe:	32 bb       	out	0x12, r19	; 18
     d00:	b5 bb       	out	0x15, r27	; 21
     d02:	a5 bb       	out	0x15, r26	; 21
	PLOT_MONO_PIXEL r0,3
     d04:	03 fa       	bst	r0, 3
     d06:	1e f4       	brtc	.+6      	; 0xd0e <FB1BIT_LOOP+0x54>
     d08:	4b bb       	out	0x1b, r20	; 27
     d0a:	52 bb       	out	0x12, r21	; 18
     d0c:	02 c0       	rjmp	.+4      	; 0xd12 <FB1BIT_LOOP+0x58>
     d0e:	2b bb       	out	0x1b, r18	; 27
     d10:	32 bb       	out	0x12, r19	; 18
     d12:	b5 bb       	out	0x15, r27	; 21
     d14:	a5 bb       	out	0x15, r26	; 21
	PLOT_MONO_PIXEL r0,2
     d16:	02 fa       	bst	r0, 2
     d18:	1e f4       	brtc	.+6      	; 0xd20 <FB1BIT_LOOP+0x66>
     d1a:	4b bb       	out	0x1b, r20	; 27
     d1c:	52 bb       	out	0x12, r21	; 18
     d1e:	02 c0       	rjmp	.+4      	; 0xd24 <FB1BIT_LOOP+0x6a>
     d20:	2b bb       	out	0x1b, r18	; 27
     d22:	32 bb       	out	0x12, r19	; 18
     d24:	b5 bb       	out	0x15, r27	; 21
     d26:	a5 bb       	out	0x15, r26	; 21
	PLOT_MONO_PIXEL r0,1
     d28:	01 fa       	bst	r0, 1
     d2a:	1e f4       	brtc	.+6      	; 0xd32 <FB1BIT_LOOP+0x78>
     d2c:	4b bb       	out	0x1b, r20	; 27
     d2e:	52 bb       	out	0x12, r21	; 18
     d30:	02 c0       	rjmp	.+4      	; 0xd36 <FB1BIT_LOOP+0x7c>
     d32:	2b bb       	out	0x1b, r18	; 27
     d34:	32 bb       	out	0x12, r19	; 18
     d36:	b5 bb       	out	0x15, r27	; 21
     d38:	a5 bb       	out	0x15, r26	; 21
	PLOT_MONO_PIXEL r0,0
     d3a:	00 fa       	bst	r0, 0
     d3c:	1e f4       	brtc	.+6      	; 0xd44 <FB1BIT_LOOP+0x8a>
     d3e:	4b bb       	out	0x1b, r20	; 27
     d40:	52 bb       	out	0x12, r21	; 18
     d42:	02 c0       	rjmp	.+4      	; 0xd48 <FB1BIT_LOOP+0x8e>
     d44:	2b bb       	out	0x1b, r18	; 27
     d46:	32 bb       	out	0x12, r19	; 18
     d48:	b5 bb       	out	0x15, r27	; 21
     d4a:	a5 bb       	out	0x15, r26	; 21

	SUB16 r24,r25,1
     d4c:	81 50       	subi	r24, 0x01	; 1
     d4e:	90 40       	sbci	r25, 0x00	; 0

	cpi r24,0
     d50:	80 30       	cpi	r24, 0x00	; 0
	cpc r25,r1
     d52:	91 05       	cpc	r25, r1
	breq FB1BIT_DONE
     d54:	11 f0       	breq	.+4      	; 0xd5a <FB1BIT_DONE>
	jmp FB1BIT_LOOP
     d56:	0c 94 5d 06 	jmp	0xcba	; 0xcba <FB1BIT_LOOP>

00000d5a <FB1BIT_DONE>:


FB1BIT_DONE:

	ret;
     d5a:	08 95       	ret

00000d5c <fastbitmap_16bit>:
		r24:r25 lenght in pixels/words
		r22:r23 pointer to data
	*/

	/* this block sets up the TOGGLE_WR_FAST registers r30:r31 */
	in r26, _SFR_IO_ADDR(WR_PORT)
     d5c:	a5 b3       	in	r26, 0x15	; 21
	mov r27, r26
     d5e:	ba 2f       	mov	r27, r26
	set
     d60:	68 94       	set
	bld r26,WR_PIN
     d62:	a7 f9       	bld	r26, 7
	clt
     d64:	e8 94       	clt
	bld r27,WR_PIN
     d66:	b7 f9       	bld	r27, 7
	
	movw r30, r22
     d68:	fb 01       	movw	r30, r22

00000d6a <FB16BIT_LOOP>:

FB16BIT_LOOP:

	
	LPM r0, Z+	
     d6a:	05 90       	lpm	r0, Z+
	out DPHIO, r0	
     d6c:	02 ba       	out	0x12, r0	; 18
	LPM r0, Z+	
     d6e:	05 90       	lpm	r0, Z+
	out DPLIO, r0
     d70:	0b ba       	out	0x1b, r0	; 27

	TOGGLE_WR_FAST r27,r26	// place a pixel!
     d72:	b5 bb       	out	0x15, r27	; 21
     d74:	a5 bb       	out	0x15, r26	; 21

	SUB16 r24,r25,1
     d76:	81 50       	subi	r24, 0x01	; 1
     d78:	90 40       	sbci	r25, 0x00	; 0

	cpi r24,0
     d7a:	80 30       	cpi	r24, 0x00	; 0
	cpc r25,r1
     d7c:	91 05       	cpc	r25, r1
	breq FB16BIT_DONE
     d7e:	11 f0       	breq	.+4      	; 0xd84 <FB16BIT_DONE>
	jmp FB16BIT_LOOP
     d80:	0c 94 b5 06 	jmp	0xd6a	; 0xd6a <FB16BIT_LOOP>

00000d84 <FB16BIT_DONE>:


FB16BIT_DONE:

	ret;
     d84:	08 95       	ret

00000d86 <fastbitmap_pb565>:
		r24:r25 data
		
	*/

	/* this block sets up the TOGGLE_WR_FAST registers r30:r31 */
	in r26, _SFR_IO_ADDR(WR_PORT)
     d86:	a5 b3       	in	r26, 0x15	; 21
	mov r27, r26
     d88:	ba 2f       	mov	r27, r26
	set
     d8a:	68 94       	set
	bld r26,WR_PIN
     d8c:	a7 f9       	bld	r26, 7
	clt
     d8e:	e8 94       	clt
	bld r27,WR_PIN
     d90:	b7 f9       	bld	r27, 7
	
	movw r30, r24
     d92:	fc 01       	movw	r30, r24

	clr r1
     d94:	11 24       	eor	r1, r1

00000d96 <PB565BIT_LOOP>:

PB565BIT_LOOP:
	
	LPM r18, Z+	
     d96:	25 91       	lpm	r18, Z+
	cpi r18,0
     d98:	20 30       	cpi	r18, 0x00	; 0
	breq PB565BIT_DONE
     d9a:	a9 f0       	breq	.+42     	; 0xdc6 <PB565BIT_DONE>
	
	bst r18,7
     d9c:	27 fb       	bst	r18, 7
	brtc PB565PLAIN
     d9e:	56 f4       	brtc	.+20     	; 0xdb4 <PB565PLAIN>
	
	// compressed loop.
	andi r18,0x7F
     da0:	2f 77       	andi	r18, 0x7F	; 127
	LPM r0, Z+
     da2:	05 90       	lpm	r0, Z+
	out DPHIO, r0
     da4:	02 ba       	out	0x12, r0	; 18
	LPM r0, Z+
     da6:	05 90       	lpm	r0, Z+
	out DPLIO, r0
     da8:	0b ba       	out	0x1b, r0	; 27

00000daa <PB565COMPRESSED>:
	

PB565COMPRESSED:
	TOGGLE_WR_FAST r27,r26
     daa:	b5 bb       	out	0x15, r27	; 21
     dac:	a5 bb       	out	0x15, r26	; 21
	dec r18
     dae:	2a 95       	dec	r18
	brne PB565COMPRESSED
     db0:	e1 f7       	brne	.-8      	; 0xdaa <PB565COMPRESSED>
	rjmp PB565BIT_LOOP
     db2:	f1 cf       	rjmp	.-30     	; 0xd96 <PB565BIT_LOOP>

00000db4 <PB565PLAIN>:


PB565PLAIN:

	LPM r0, Z+
     db4:	05 90       	lpm	r0, Z+
	out DPHIO, r0
     db6:	02 ba       	out	0x12, r0	; 18
	LPM r0, Z+
     db8:	05 90       	lpm	r0, Z+
	out DPLIO, r0
     dba:	0b ba       	out	0x1b, r0	; 27
	TOGGLE_WR_FAST r27,r26
     dbc:	b5 bb       	out	0x15, r27	; 21
     dbe:	a5 bb       	out	0x15, r26	; 21
	dec r18
     dc0:	2a 95       	dec	r18
	brne PB565PLAIN
     dc2:	c1 f7       	brne	.-16     	; 0xdb4 <PB565PLAIN>
	rjmp PB565BIT_LOOP
     dc4:	e8 cf       	rjmp	.-48     	; 0xd96 <PB565BIT_LOOP>

00000dc6 <PB565BIT_DONE>:




PB565BIT_DONE:
	clr r0
     dc6:	00 24       	eor	r0, r0
	ret;
     dc8:	08 95       	ret

00000dca <fastfill>:
// r22-r25 unsigned 32 bit number of pixels to set.
// note that only 17 bits of this are used, so max pixels
// is 131071, which is fine since we only have 320 * 240 pixels or 76800 loops
fastfill:

	clr r18
     dca:	22 27       	eor	r18, r18

	// devide by 2
	// no need for register 25 it has no bits we care about.
	lsr r24
     dcc:	86 95       	lsr	r24
	ror r23
     dce:	77 95       	ror	r23
	ror r22
     dd0:	67 95       	ror	r22
	ror r18 // take carry onto r18 (modulus)
     dd2:	27 95       	ror	r18

	// devide by 4
	// no need for register 24, it had a max of 1 bit we care about.
	lsr r23
     dd4:	76 95       	lsr	r23
	ror r22
     dd6:	67 95       	ror	r22
	ror r18 // take carry onto r18 (modulus)
     dd8:	27 95       	ror	r18

	// devide by 8
	//lsr r24
	lsr r23
     dda:	76 95       	lsr	r23
	ror r22
     ddc:	67 95       	ror	r22
	ror r18 // take carry onto r18 (modulus)
     dde:	27 95       	ror	r18

	// devide by 16		
	// lsr r24
	lsr r23
     de0:	76 95       	lsr	r23
	ror r22
     de2:	67 95       	ror	r22
	ror r18 // take carry onto r18 (modulus)
     de4:	27 95       	ror	r18

	// finish rolling a full 8 bits aka swap nibbles
	swap r18
     de6:	22 95       	swap	r18

	movw r24, r22
     de8:	cb 01       	movw	r24, r22

00000dea <fastfill2>:
// r24 + r25 hold 16 bit unsigned number of 16xloops.
// r18 holds 8 bit unsigned numner of single loops
fastfill2:

	// prepare the out port registers
	in r30, _SFR_IO_ADDR(WR_PORT)
     dea:	e5 b3       	in	r30, 0x15	; 21
	mov r31, r30
     dec:	fe 2f       	mov	r31, r30
	set
     dee:	68 94       	set
	bld r30,WR_PIN
     df0:	e7 f9       	bld	r30, 7
	clt
     df2:	e8 94       	clt
	bld r31,WR_PIN
     df4:	f7 f9       	bld	r31, 7

	sbiw r24,0 // subtract zero and test if zero	
     df6:	00 97       	sbiw	r24, 0x00	; 0
	breq exitloop16
     df8:	11 f1       	breq	.+68     	; 0xe3e <exitloop16>

00000dfa <loop16>:
loop16:
		
	TOGGLE_WR_FAST r31,r30
     dfa:	f5 bb       	out	0x15, r31	; 21
     dfc:	e5 bb       	out	0x15, r30	; 21
	TOGGLE_WR_FAST r31,r30
     dfe:	f5 bb       	out	0x15, r31	; 21
     e00:	e5 bb       	out	0x15, r30	; 21
	TOGGLE_WR_FAST r31,r30
     e02:	f5 bb       	out	0x15, r31	; 21
     e04:	e5 bb       	out	0x15, r30	; 21
	TOGGLE_WR_FAST r31,r30
     e06:	f5 bb       	out	0x15, r31	; 21
     e08:	e5 bb       	out	0x15, r30	; 21
		
	TOGGLE_WR_FAST r31,r30
     e0a:	f5 bb       	out	0x15, r31	; 21
     e0c:	e5 bb       	out	0x15, r30	; 21
	TOGGLE_WR_FAST r31,r30
     e0e:	f5 bb       	out	0x15, r31	; 21
     e10:	e5 bb       	out	0x15, r30	; 21
	TOGGLE_WR_FAST r31,r30
     e12:	f5 bb       	out	0x15, r31	; 21
     e14:	e5 bb       	out	0x15, r30	; 21
	TOGGLE_WR_FAST r31,r30
     e16:	f5 bb       	out	0x15, r31	; 21
     e18:	e5 bb       	out	0x15, r30	; 21
		
	TOGGLE_WR_FAST r31,r30
     e1a:	f5 bb       	out	0x15, r31	; 21
     e1c:	e5 bb       	out	0x15, r30	; 21
	TOGGLE_WR_FAST r31,r30
     e1e:	f5 bb       	out	0x15, r31	; 21
     e20:	e5 bb       	out	0x15, r30	; 21
	TOGGLE_WR_FAST r31,r30
     e22:	f5 bb       	out	0x15, r31	; 21
     e24:	e5 bb       	out	0x15, r30	; 21
	TOGGLE_WR_FAST r31,r30
     e26:	f5 bb       	out	0x15, r31	; 21
     e28:	e5 bb       	out	0x15, r30	; 21
		
	TOGGLE_WR_FAST r31,r30
     e2a:	f5 bb       	out	0x15, r31	; 21
     e2c:	e5 bb       	out	0x15, r30	; 21
	TOGGLE_WR_FAST r31,r30
     e2e:	f5 bb       	out	0x15, r31	; 21
     e30:	e5 bb       	out	0x15, r30	; 21
	TOGGLE_WR_FAST r31,r30
     e32:	f5 bb       	out	0x15, r31	; 21
     e34:	e5 bb       	out	0x15, r30	; 21
	TOGGLE_WR_FAST r31,r30
     e36:	f5 bb       	out	0x15, r31	; 21
     e38:	e5 bb       	out	0x15, r30	; 21

	sbiw r24,1	
     e3a:	01 97       	sbiw	r24, 0x01	; 1
	brne loop16
     e3c:	f1 f6       	brne	.-68     	; 0xdfa <loop16>

00000e3e <exitloop16>:

exitloop16:

	cpi r18,0
     e3e:	20 30       	cpi	r18, 0x00	; 0
	breq exitsingleloop
     e40:	21 f0       	breq	.+8      	; 0xe4a <exitsingleloop>

00000e42 <singleloop>:
singleloop:			
	TOGGLE_WR_FAST r31,r30
     e42:	f5 bb       	out	0x15, r31	; 21
     e44:	e5 bb       	out	0x15, r30	; 21
	dec r18
     e46:	2a 95       	dec	r18
	brne singleloop
     e48:	e1 f7       	brne	.-8      	; 0xe42 <singleloop>

00000e4a <exitsingleloop>:

exitsingleloop:
	ret 
     e4a:	08 95       	ret

00000e4c <fastfill3>:

// r22-r25 unsigned 32 bit number of pixels to set.
// note that only 17 bits of this are used, so max pixels
// is 131071, which is fine since we only have 320 * 240 pixels or 76800 loops
fastfill3:
	TOGGLE_WR
     e4c:	af 98       	cbi	0x15, 7	; 21
     e4e:	af 9a       	sbi	0x15, 7	; 21
	SUB32 r22,r23,r24,r25,1
     e50:	61 50       	subi	r22, 0x01	; 1
     e52:	70 40       	sbci	r23, 0x00	; 0
     e54:	80 40       	sbci	r24, 0x00	; 0
     e56:	90 40       	sbci	r25, 0x00	; 0
	brne fastfill3
     e58:	c9 f7       	brne	.-14     	; 0xe4c <fastfill3>

     e5a:	08 95       	ret

00000e5c <LCD_Write_COM>:
#include "as_macros.h"


.global LCD_Write_COM
LCD_Write_COM:
	BUS_START_REG
     e5c:	ae 98       	cbi	0x15, 6	; 21
	clr r1
     e5e:	11 24       	eor	r1, r1
	out DPLIO, r24
     e60:	8b bb       	out	0x1b, r24	; 27
	out DPHIO, r1
     e62:	12 ba       	out	0x12, r1	; 18
	TOGGLE_WR
     e64:	af 98       	cbi	0x15, 7	; 21
     e66:	af 9a       	sbi	0x15, 7	; 21
	ret
     e68:	08 95       	ret

00000e6a <LCD_Write_DATA>:

.global LCD_Write_DATA
LCD_Write_DATA:
	BUS_START_DATA	
     e6a:	ae 9a       	sbi	0x15, 6	; 21
	out DPLIO, r22
     e6c:	6b bb       	out	0x1b, r22	; 27
	out DPHIO, r24
     e6e:	82 bb       	out	0x12, r24	; 18
	TOGGLE_WR
     e70:	af 98       	cbi	0x15, 7	; 21
     e72:	af 9a       	sbi	0x15, 7	; 21
	ret
     e74:	08 95       	ret

00000e76 <LCD_Write_DATA2>:

.global LCD_Write_DATA2
LCD_Write_DATA2:
	BUS_START_DATA	
     e76:	ae 9a       	sbi	0x15, 6	; 21
	clr r1
     e78:	11 24       	eor	r1, r1
	out DPLIO, r24
     e7a:	8b bb       	out	0x1b, r24	; 27
	out DPHIO, r1
     e7c:	12 ba       	out	0x12, r1	; 18
	TOGGLE_WR
     e7e:	af 98       	cbi	0x15, 7	; 21
     e80:	af 9a       	sbi	0x15, 7	; 21
	ret
     e82:	08 95       	ret

00000e84 <LCD_Write_COM_DATA>:


.global LCD_Write_COM_DATA
LCD_Write_COM_DATA:
	
	BUS_START_REG
     e84:	ae 98       	cbi	0x15, 6	; 21
	clr r1
     e86:	11 24       	eor	r1, r1
	out DPLIO, r24
     e88:	8b bb       	out	0x1b, r24	; 27
	out DPHIO, r1
     e8a:	12 ba       	out	0x12, r1	; 18
	TOGGLE_WR
     e8c:	af 98       	cbi	0x15, 7	; 21
     e8e:	af 9a       	sbi	0x15, 7	; 21

	BUS_START_DATA	
     e90:	ae 9a       	sbi	0x15, 6	; 21
	out DPLIO, r22
     e92:	6b bb       	out	0x1b, r22	; 27
	out DPHIO, r23
     e94:	72 bb       	out	0x12, r23	; 18
	TOGGLE_WR
     e96:	af 98       	cbi	0x15, 7	; 21
     e98:	af 9a       	sbi	0x15, 7	; 21

	ret
     e9a:	08 95       	ret

00000e9c <LCD_Writ_Bus>:


.global LCD_Writ_Bus
	LCD_Writ_Bus:

	out DPHIO, r24
     e9c:	82 bb       	out	0x12, r24	; 18
	out DPLIO, r22
     e9e:	6b bb       	out	0x1b, r22	; 27
	TOGGLE_WR
     ea0:	af 98       	cbi	0x15, 7	; 21
     ea2:	af 9a       	sbi	0x15, 7	; 21

     ea4:	08 95       	ret

00000ea6 <fastlineAPP>:
.global fastlineAPN
.global fastlineANP
.global fastlineANN

fastlineAPP:
FAST_LINE_A ADD16 ADD16
     ea6:	cf 93       	push	r28
     ea8:	e5 b3       	in	r30, 0x15	; 21
     eaa:	fe 2f       	mov	r31, r30
     eac:	68 94       	set
     eae:	e7 f9       	bld	r30, 7
     eb0:	e8 94       	clt
     eb2:	f7 f9       	bld	r31, 7
     eb4:	8b bb       	out	0x1b, r24	; 27
     eb6:	92 bb       	out	0x12, r25	; 18
     eb8:	d6 01       	movw	r26, r12
     eba:	b6 95       	lsr	r27
     ebc:	a7 95       	ror	r26
     ebe:	0f 5f       	subi	r16, 0xFF	; 255
     ec0:	1f 4f       	sbci	r17, 0xFF	; 255
     ec2:	02 c0       	rjmp	.+4      	; 0xec8 <fastlineAPP+0x22>
     ec4:	2f 5f       	subi	r18, 0xFF	; 255
     ec6:	3f 4f       	sbci	r19, 0xFF	; 255
     ec8:	20 17       	cp	r18, r16
     eca:	31 07       	cpc	r19, r17
     ecc:	81 f1       	breq	.+96     	; 0xf2e <fastlineAPP+0x88>
     ece:	f5 bb       	out	0x15, r31	; 21
     ed0:	e5 bb       	out	0x15, r30	; 21
     ed2:	ae 0d       	add	r26, r14
     ed4:	bf 1d       	adc	r27, r15
     ed6:	ac 15       	cp	r26, r12
     ed8:	bd 05       	cpc	r27, r13
     eda:	a0 f3       	brcs	.-24     	; 0xec4 <fastlineAPP+0x1e>
     edc:	ac 19       	sub	r26, r12
     ede:	bd 09       	sbc	r27, r13
     ee0:	6f 5f       	subi	r22, 0xFF	; 255
     ee2:	7f 4f       	sbci	r23, 0xFF	; 255
     ee4:	2f 5f       	subi	r18, 0xFF	; 255
     ee6:	3f 4f       	sbci	r19, 0xFF	; 255
     ee8:	ae 98       	cbi	0x15, 6	; 21
     eea:	c0 e0       	ldi	r28, 0x00	; 0
     eec:	c2 bb       	out	0x12, r28	; 18
     eee:	ce e4       	ldi	r28, 0x4E	; 78
     ef0:	cb bb       	out	0x1b, r28	; 27
     ef2:	af 98       	cbi	0x15, 7	; 21
     ef4:	af 9a       	sbi	0x15, 7	; 21
     ef6:	ae 9a       	sbi	0x15, 6	; 21
     ef8:	72 bb       	out	0x12, r23	; 18
     efa:	6b bb       	out	0x1b, r22	; 27
     efc:	af 98       	cbi	0x15, 7	; 21
     efe:	af 9a       	sbi	0x15, 7	; 21
     f00:	ae 98       	cbi	0x15, 6	; 21
     f02:	c0 e0       	ldi	r28, 0x00	; 0
     f04:	c2 bb       	out	0x12, r28	; 18
     f06:	cf e4       	ldi	r28, 0x4F	; 79
     f08:	cb bb       	out	0x1b, r28	; 27
     f0a:	af 98       	cbi	0x15, 7	; 21
     f0c:	af 9a       	sbi	0x15, 7	; 21
     f0e:	ae 9a       	sbi	0x15, 6	; 21
     f10:	32 bb       	out	0x12, r19	; 18
     f12:	2b bb       	out	0x1b, r18	; 27
     f14:	af 98       	cbi	0x15, 7	; 21
     f16:	af 9a       	sbi	0x15, 7	; 21
     f18:	ae 98       	cbi	0x15, 6	; 21
     f1a:	c0 e0       	ldi	r28, 0x00	; 0
     f1c:	c2 bb       	out	0x12, r28	; 18
     f1e:	c2 e2       	ldi	r28, 0x22	; 34
     f20:	cb bb       	out	0x1b, r28	; 27
     f22:	af 98       	cbi	0x15, 7	; 21
     f24:	af 9a       	sbi	0x15, 7	; 21
     f26:	ae 9a       	sbi	0x15, 6	; 21
     f28:	8b bb       	out	0x1b, r24	; 27
     f2a:	92 bb       	out	0x12, r25	; 18
     f2c:	cd cf       	rjmp	.-102    	; 0xec8 <fastlineAPP+0x22>
     f2e:	cf 91       	pop	r28
     f30:	08 95       	ret

00000f32 <fastlineAPN>:

fastlineAPN:
FAST_LINE_A ADD16 SUB16
     f32:	cf 93       	push	r28
     f34:	e5 b3       	in	r30, 0x15	; 21
     f36:	fe 2f       	mov	r31, r30
     f38:	68 94       	set
     f3a:	e7 f9       	bld	r30, 7
     f3c:	e8 94       	clt
     f3e:	f7 f9       	bld	r31, 7
     f40:	8b bb       	out	0x1b, r24	; 27
     f42:	92 bb       	out	0x12, r25	; 18
     f44:	d6 01       	movw	r26, r12
     f46:	b6 95       	lsr	r27
     f48:	a7 95       	ror	r26
     f4a:	01 50       	subi	r16, 0x01	; 1
     f4c:	10 40       	sbci	r17, 0x00	; 0
     f4e:	02 c0       	rjmp	.+4      	; 0xf54 <fastlineAPN+0x22>
     f50:	21 50       	subi	r18, 0x01	; 1
     f52:	30 40       	sbci	r19, 0x00	; 0
     f54:	20 17       	cp	r18, r16
     f56:	31 07       	cpc	r19, r17
     f58:	81 f1       	breq	.+96     	; 0xfba <fastlineAPN+0x88>
     f5a:	f5 bb       	out	0x15, r31	; 21
     f5c:	e5 bb       	out	0x15, r30	; 21
     f5e:	ae 0d       	add	r26, r14
     f60:	bf 1d       	adc	r27, r15
     f62:	ac 15       	cp	r26, r12
     f64:	bd 05       	cpc	r27, r13
     f66:	a0 f3       	brcs	.-24     	; 0xf50 <fastlineAPN+0x1e>
     f68:	ac 19       	sub	r26, r12
     f6a:	bd 09       	sbc	r27, r13
     f6c:	6f 5f       	subi	r22, 0xFF	; 255
     f6e:	7f 4f       	sbci	r23, 0xFF	; 255
     f70:	21 50       	subi	r18, 0x01	; 1
     f72:	30 40       	sbci	r19, 0x00	; 0
     f74:	ae 98       	cbi	0x15, 6	; 21
     f76:	c0 e0       	ldi	r28, 0x00	; 0
     f78:	c2 bb       	out	0x12, r28	; 18
     f7a:	ce e4       	ldi	r28, 0x4E	; 78
     f7c:	cb bb       	out	0x1b, r28	; 27
     f7e:	af 98       	cbi	0x15, 7	; 21
     f80:	af 9a       	sbi	0x15, 7	; 21
     f82:	ae 9a       	sbi	0x15, 6	; 21
     f84:	72 bb       	out	0x12, r23	; 18
     f86:	6b bb       	out	0x1b, r22	; 27
     f88:	af 98       	cbi	0x15, 7	; 21
     f8a:	af 9a       	sbi	0x15, 7	; 21
     f8c:	ae 98       	cbi	0x15, 6	; 21
     f8e:	c0 e0       	ldi	r28, 0x00	; 0
     f90:	c2 bb       	out	0x12, r28	; 18
     f92:	cf e4       	ldi	r28, 0x4F	; 79
     f94:	cb bb       	out	0x1b, r28	; 27
     f96:	af 98       	cbi	0x15, 7	; 21
     f98:	af 9a       	sbi	0x15, 7	; 21
     f9a:	ae 9a       	sbi	0x15, 6	; 21
     f9c:	32 bb       	out	0x12, r19	; 18
     f9e:	2b bb       	out	0x1b, r18	; 27
     fa0:	af 98       	cbi	0x15, 7	; 21
     fa2:	af 9a       	sbi	0x15, 7	; 21
     fa4:	ae 98       	cbi	0x15, 6	; 21
     fa6:	c0 e0       	ldi	r28, 0x00	; 0
     fa8:	c2 bb       	out	0x12, r28	; 18
     faa:	c2 e2       	ldi	r28, 0x22	; 34
     fac:	cb bb       	out	0x1b, r28	; 27
     fae:	af 98       	cbi	0x15, 7	; 21
     fb0:	af 9a       	sbi	0x15, 7	; 21
     fb2:	ae 9a       	sbi	0x15, 6	; 21
     fb4:	8b bb       	out	0x1b, r24	; 27
     fb6:	92 bb       	out	0x12, r25	; 18
     fb8:	cd cf       	rjmp	.-102    	; 0xf54 <fastlineAPN+0x22>
     fba:	cf 91       	pop	r28
     fbc:	08 95       	ret

00000fbe <fastlineANP>:

fastlineANP:
FAST_LINE_A SUB16 ADD16
     fbe:	cf 93       	push	r28
     fc0:	e5 b3       	in	r30, 0x15	; 21
     fc2:	fe 2f       	mov	r31, r30
     fc4:	68 94       	set
     fc6:	e7 f9       	bld	r30, 7
     fc8:	e8 94       	clt
     fca:	f7 f9       	bld	r31, 7
     fcc:	8b bb       	out	0x1b, r24	; 27
     fce:	92 bb       	out	0x12, r25	; 18
     fd0:	d6 01       	movw	r26, r12
     fd2:	b6 95       	lsr	r27
     fd4:	a7 95       	ror	r26
     fd6:	0f 5f       	subi	r16, 0xFF	; 255
     fd8:	1f 4f       	sbci	r17, 0xFF	; 255
     fda:	02 c0       	rjmp	.+4      	; 0xfe0 <fastlineANP+0x22>
     fdc:	2f 5f       	subi	r18, 0xFF	; 255
     fde:	3f 4f       	sbci	r19, 0xFF	; 255
     fe0:	20 17       	cp	r18, r16
     fe2:	31 07       	cpc	r19, r17
     fe4:	81 f1       	breq	.+96     	; 0x1046 <fastlineANP+0x88>
     fe6:	f5 bb       	out	0x15, r31	; 21
     fe8:	e5 bb       	out	0x15, r30	; 21
     fea:	ae 0d       	add	r26, r14
     fec:	bf 1d       	adc	r27, r15
     fee:	ac 15       	cp	r26, r12
     ff0:	bd 05       	cpc	r27, r13
     ff2:	a0 f3       	brcs	.-24     	; 0xfdc <fastlineANP+0x1e>
     ff4:	ac 19       	sub	r26, r12
     ff6:	bd 09       	sbc	r27, r13
     ff8:	61 50       	subi	r22, 0x01	; 1
     ffa:	70 40       	sbci	r23, 0x00	; 0
     ffc:	2f 5f       	subi	r18, 0xFF	; 255
     ffe:	3f 4f       	sbci	r19, 0xFF	; 255
    1000:	ae 98       	cbi	0x15, 6	; 21
    1002:	c0 e0       	ldi	r28, 0x00	; 0
    1004:	c2 bb       	out	0x12, r28	; 18
    1006:	ce e4       	ldi	r28, 0x4E	; 78
    1008:	cb bb       	out	0x1b, r28	; 27
    100a:	af 98       	cbi	0x15, 7	; 21
    100c:	af 9a       	sbi	0x15, 7	; 21
    100e:	ae 9a       	sbi	0x15, 6	; 21
    1010:	72 bb       	out	0x12, r23	; 18
    1012:	6b bb       	out	0x1b, r22	; 27
    1014:	af 98       	cbi	0x15, 7	; 21
    1016:	af 9a       	sbi	0x15, 7	; 21
    1018:	ae 98       	cbi	0x15, 6	; 21
    101a:	c0 e0       	ldi	r28, 0x00	; 0
    101c:	c2 bb       	out	0x12, r28	; 18
    101e:	cf e4       	ldi	r28, 0x4F	; 79
    1020:	cb bb       	out	0x1b, r28	; 27
    1022:	af 98       	cbi	0x15, 7	; 21
    1024:	af 9a       	sbi	0x15, 7	; 21
    1026:	ae 9a       	sbi	0x15, 6	; 21
    1028:	32 bb       	out	0x12, r19	; 18
    102a:	2b bb       	out	0x1b, r18	; 27
    102c:	af 98       	cbi	0x15, 7	; 21
    102e:	af 9a       	sbi	0x15, 7	; 21
    1030:	ae 98       	cbi	0x15, 6	; 21
    1032:	c0 e0       	ldi	r28, 0x00	; 0
    1034:	c2 bb       	out	0x12, r28	; 18
    1036:	c2 e2       	ldi	r28, 0x22	; 34
    1038:	cb bb       	out	0x1b, r28	; 27
    103a:	af 98       	cbi	0x15, 7	; 21
    103c:	af 9a       	sbi	0x15, 7	; 21
    103e:	ae 9a       	sbi	0x15, 6	; 21
    1040:	8b bb       	out	0x1b, r24	; 27
    1042:	92 bb       	out	0x12, r25	; 18
    1044:	cd cf       	rjmp	.-102    	; 0xfe0 <fastlineANP+0x22>
    1046:	cf 91       	pop	r28
    1048:	08 95       	ret

0000104a <fastlineANN>:

fastlineANN:
FAST_LINE_A SUB16 SUB16
    104a:	cf 93       	push	r28
    104c:	e5 b3       	in	r30, 0x15	; 21
    104e:	fe 2f       	mov	r31, r30
    1050:	68 94       	set
    1052:	e7 f9       	bld	r30, 7
    1054:	e8 94       	clt
    1056:	f7 f9       	bld	r31, 7
    1058:	8b bb       	out	0x1b, r24	; 27
    105a:	92 bb       	out	0x12, r25	; 18
    105c:	d6 01       	movw	r26, r12
    105e:	b6 95       	lsr	r27
    1060:	a7 95       	ror	r26
    1062:	01 50       	subi	r16, 0x01	; 1
    1064:	10 40       	sbci	r17, 0x00	; 0
    1066:	02 c0       	rjmp	.+4      	; 0x106c <fastlineANN+0x22>
    1068:	21 50       	subi	r18, 0x01	; 1
    106a:	30 40       	sbci	r19, 0x00	; 0
    106c:	20 17       	cp	r18, r16
    106e:	31 07       	cpc	r19, r17
    1070:	81 f1       	breq	.+96     	; 0x10d2 <fastlineANN+0x88>
    1072:	f5 bb       	out	0x15, r31	; 21
    1074:	e5 bb       	out	0x15, r30	; 21
    1076:	ae 0d       	add	r26, r14
    1078:	bf 1d       	adc	r27, r15
    107a:	ac 15       	cp	r26, r12
    107c:	bd 05       	cpc	r27, r13
    107e:	a0 f3       	brcs	.-24     	; 0x1068 <fastlineANN+0x1e>
    1080:	ac 19       	sub	r26, r12
    1082:	bd 09       	sbc	r27, r13
    1084:	61 50       	subi	r22, 0x01	; 1
    1086:	70 40       	sbci	r23, 0x00	; 0
    1088:	21 50       	subi	r18, 0x01	; 1
    108a:	30 40       	sbci	r19, 0x00	; 0
    108c:	ae 98       	cbi	0x15, 6	; 21
    108e:	c0 e0       	ldi	r28, 0x00	; 0
    1090:	c2 bb       	out	0x12, r28	; 18
    1092:	ce e4       	ldi	r28, 0x4E	; 78
    1094:	cb bb       	out	0x1b, r28	; 27
    1096:	af 98       	cbi	0x15, 7	; 21
    1098:	af 9a       	sbi	0x15, 7	; 21
    109a:	ae 9a       	sbi	0x15, 6	; 21
    109c:	72 bb       	out	0x12, r23	; 18
    109e:	6b bb       	out	0x1b, r22	; 27
    10a0:	af 98       	cbi	0x15, 7	; 21
    10a2:	af 9a       	sbi	0x15, 7	; 21
    10a4:	ae 98       	cbi	0x15, 6	; 21
    10a6:	c0 e0       	ldi	r28, 0x00	; 0
    10a8:	c2 bb       	out	0x12, r28	; 18
    10aa:	cf e4       	ldi	r28, 0x4F	; 79
    10ac:	cb bb       	out	0x1b, r28	; 27
    10ae:	af 98       	cbi	0x15, 7	; 21
    10b0:	af 9a       	sbi	0x15, 7	; 21
    10b2:	ae 9a       	sbi	0x15, 6	; 21
    10b4:	32 bb       	out	0x12, r19	; 18
    10b6:	2b bb       	out	0x1b, r18	; 27
    10b8:	af 98       	cbi	0x15, 7	; 21
    10ba:	af 9a       	sbi	0x15, 7	; 21
    10bc:	ae 98       	cbi	0x15, 6	; 21
    10be:	c0 e0       	ldi	r28, 0x00	; 0
    10c0:	c2 bb       	out	0x12, r28	; 18
    10c2:	c2 e2       	ldi	r28, 0x22	; 34
    10c4:	cb bb       	out	0x1b, r28	; 27
    10c6:	af 98       	cbi	0x15, 7	; 21
    10c8:	af 9a       	sbi	0x15, 7	; 21
    10ca:	ae 9a       	sbi	0x15, 6	; 21
    10cc:	8b bb       	out	0x1b, r24	; 27
    10ce:	92 bb       	out	0x12, r25	; 18
    10d0:	cd cf       	rjmp	.-102    	; 0x106c <fastlineANN+0x22>
    10d2:	cf 91       	pop	r28
    10d4:	08 95       	ret

000010d6 <fastlineBPP>:
.global fastlineBPN
.global fastlineBNP
.global fastlineBNN

fastlineBPP:
FAST_LINE_B ADD16 ADD16
    10d6:	cf 93       	push	r28
    10d8:	e5 b3       	in	r30, 0x15	; 21
    10da:	fe 2f       	mov	r31, r30
    10dc:	68 94       	set
    10de:	e7 f9       	bld	r30, 7
    10e0:	e8 94       	clt
    10e2:	f7 f9       	bld	r31, 7
    10e4:	8b bb       	out	0x1b, r24	; 27
    10e6:	92 bb       	out	0x12, r25	; 18
    10e8:	d7 01       	movw	r26, r14
    10ea:	b6 95       	lsr	r27
    10ec:	a7 95       	ror	r26
    10ee:	4f 5f       	subi	r20, 0xFF	; 255
    10f0:	5f 4f       	sbci	r21, 0xFF	; 255
    10f2:	02 c0       	rjmp	.+4      	; 0x10f8 <fastlineBPP+0x22>
    10f4:	6f 5f       	subi	r22, 0xFF	; 255
    10f6:	7f 4f       	sbci	r23, 0xFF	; 255
    10f8:	64 17       	cp	r22, r20
    10fa:	75 07       	cpc	r23, r21
    10fc:	81 f1       	breq	.+96     	; 0x115e <fastlineBPP+0x88>
    10fe:	f5 bb       	out	0x15, r31	; 21
    1100:	e5 bb       	out	0x15, r30	; 21
    1102:	ac 0d       	add	r26, r12
    1104:	bd 1d       	adc	r27, r13
    1106:	ae 15       	cp	r26, r14
    1108:	bf 05       	cpc	r27, r15
    110a:	a0 f3       	brcs	.-24     	; 0x10f4 <fastlineBPP+0x1e>
    110c:	ae 19       	sub	r26, r14
    110e:	bf 09       	sbc	r27, r15
    1110:	6f 5f       	subi	r22, 0xFF	; 255
    1112:	7f 4f       	sbci	r23, 0xFF	; 255
    1114:	2f 5f       	subi	r18, 0xFF	; 255
    1116:	3f 4f       	sbci	r19, 0xFF	; 255
    1118:	ae 98       	cbi	0x15, 6	; 21
    111a:	c0 e0       	ldi	r28, 0x00	; 0
    111c:	c2 bb       	out	0x12, r28	; 18
    111e:	ce e4       	ldi	r28, 0x4E	; 78
    1120:	cb bb       	out	0x1b, r28	; 27
    1122:	af 98       	cbi	0x15, 7	; 21
    1124:	af 9a       	sbi	0x15, 7	; 21
    1126:	ae 9a       	sbi	0x15, 6	; 21
    1128:	72 bb       	out	0x12, r23	; 18
    112a:	6b bb       	out	0x1b, r22	; 27
    112c:	af 98       	cbi	0x15, 7	; 21
    112e:	af 9a       	sbi	0x15, 7	; 21
    1130:	ae 98       	cbi	0x15, 6	; 21
    1132:	c0 e0       	ldi	r28, 0x00	; 0
    1134:	c2 bb       	out	0x12, r28	; 18
    1136:	cf e4       	ldi	r28, 0x4F	; 79
    1138:	cb bb       	out	0x1b, r28	; 27
    113a:	af 98       	cbi	0x15, 7	; 21
    113c:	af 9a       	sbi	0x15, 7	; 21
    113e:	ae 9a       	sbi	0x15, 6	; 21
    1140:	32 bb       	out	0x12, r19	; 18
    1142:	2b bb       	out	0x1b, r18	; 27
    1144:	af 98       	cbi	0x15, 7	; 21
    1146:	af 9a       	sbi	0x15, 7	; 21
    1148:	ae 98       	cbi	0x15, 6	; 21
    114a:	c0 e0       	ldi	r28, 0x00	; 0
    114c:	c2 bb       	out	0x12, r28	; 18
    114e:	c2 e2       	ldi	r28, 0x22	; 34
    1150:	cb bb       	out	0x1b, r28	; 27
    1152:	af 98       	cbi	0x15, 7	; 21
    1154:	af 9a       	sbi	0x15, 7	; 21
    1156:	ae 9a       	sbi	0x15, 6	; 21
    1158:	8b bb       	out	0x1b, r24	; 27
    115a:	92 bb       	out	0x12, r25	; 18
    115c:	cd cf       	rjmp	.-102    	; 0x10f8 <fastlineBPP+0x22>
    115e:	cf 91       	pop	r28
    1160:	08 95       	ret

00001162 <fastlineBPN>:

fastlineBPN:
FAST_LINE_B ADD16 SUB16
    1162:	cf 93       	push	r28
    1164:	e5 b3       	in	r30, 0x15	; 21
    1166:	fe 2f       	mov	r31, r30
    1168:	68 94       	set
    116a:	e7 f9       	bld	r30, 7
    116c:	e8 94       	clt
    116e:	f7 f9       	bld	r31, 7
    1170:	8b bb       	out	0x1b, r24	; 27
    1172:	92 bb       	out	0x12, r25	; 18
    1174:	d7 01       	movw	r26, r14
    1176:	b6 95       	lsr	r27
    1178:	a7 95       	ror	r26
    117a:	4f 5f       	subi	r20, 0xFF	; 255
    117c:	5f 4f       	sbci	r21, 0xFF	; 255
    117e:	02 c0       	rjmp	.+4      	; 0x1184 <fastlineBPN+0x22>
    1180:	6f 5f       	subi	r22, 0xFF	; 255
    1182:	7f 4f       	sbci	r23, 0xFF	; 255
    1184:	64 17       	cp	r22, r20
    1186:	75 07       	cpc	r23, r21
    1188:	81 f1       	breq	.+96     	; 0x11ea <fastlineBPN+0x88>
    118a:	f5 bb       	out	0x15, r31	; 21
    118c:	e5 bb       	out	0x15, r30	; 21
    118e:	ac 0d       	add	r26, r12
    1190:	bd 1d       	adc	r27, r13
    1192:	ae 15       	cp	r26, r14
    1194:	bf 05       	cpc	r27, r15
    1196:	a0 f3       	brcs	.-24     	; 0x1180 <fastlineBPN+0x1e>
    1198:	ae 19       	sub	r26, r14
    119a:	bf 09       	sbc	r27, r15
    119c:	6f 5f       	subi	r22, 0xFF	; 255
    119e:	7f 4f       	sbci	r23, 0xFF	; 255
    11a0:	21 50       	subi	r18, 0x01	; 1
    11a2:	30 40       	sbci	r19, 0x00	; 0
    11a4:	ae 98       	cbi	0x15, 6	; 21
    11a6:	c0 e0       	ldi	r28, 0x00	; 0
    11a8:	c2 bb       	out	0x12, r28	; 18
    11aa:	ce e4       	ldi	r28, 0x4E	; 78
    11ac:	cb bb       	out	0x1b, r28	; 27
    11ae:	af 98       	cbi	0x15, 7	; 21
    11b0:	af 9a       	sbi	0x15, 7	; 21
    11b2:	ae 9a       	sbi	0x15, 6	; 21
    11b4:	72 bb       	out	0x12, r23	; 18
    11b6:	6b bb       	out	0x1b, r22	; 27
    11b8:	af 98       	cbi	0x15, 7	; 21
    11ba:	af 9a       	sbi	0x15, 7	; 21
    11bc:	ae 98       	cbi	0x15, 6	; 21
    11be:	c0 e0       	ldi	r28, 0x00	; 0
    11c0:	c2 bb       	out	0x12, r28	; 18
    11c2:	cf e4       	ldi	r28, 0x4F	; 79
    11c4:	cb bb       	out	0x1b, r28	; 27
    11c6:	af 98       	cbi	0x15, 7	; 21
    11c8:	af 9a       	sbi	0x15, 7	; 21
    11ca:	ae 9a       	sbi	0x15, 6	; 21
    11cc:	32 bb       	out	0x12, r19	; 18
    11ce:	2b bb       	out	0x1b, r18	; 27
    11d0:	af 98       	cbi	0x15, 7	; 21
    11d2:	af 9a       	sbi	0x15, 7	; 21
    11d4:	ae 98       	cbi	0x15, 6	; 21
    11d6:	c0 e0       	ldi	r28, 0x00	; 0
    11d8:	c2 bb       	out	0x12, r28	; 18
    11da:	c2 e2       	ldi	r28, 0x22	; 34
    11dc:	cb bb       	out	0x1b, r28	; 27
    11de:	af 98       	cbi	0x15, 7	; 21
    11e0:	af 9a       	sbi	0x15, 7	; 21
    11e2:	ae 9a       	sbi	0x15, 6	; 21
    11e4:	8b bb       	out	0x1b, r24	; 27
    11e6:	92 bb       	out	0x12, r25	; 18
    11e8:	cd cf       	rjmp	.-102    	; 0x1184 <fastlineBPN+0x22>
    11ea:	cf 91       	pop	r28
    11ec:	08 95       	ret

000011ee <fastlineBNP>:

fastlineBNP:
FAST_LINE_B SUB16 ADD16
    11ee:	cf 93       	push	r28
    11f0:	e5 b3       	in	r30, 0x15	; 21
    11f2:	fe 2f       	mov	r31, r30
    11f4:	68 94       	set
    11f6:	e7 f9       	bld	r30, 7
    11f8:	e8 94       	clt
    11fa:	f7 f9       	bld	r31, 7
    11fc:	8b bb       	out	0x1b, r24	; 27
    11fe:	92 bb       	out	0x12, r25	; 18
    1200:	d7 01       	movw	r26, r14
    1202:	b6 95       	lsr	r27
    1204:	a7 95       	ror	r26
    1206:	41 50       	subi	r20, 0x01	; 1
    1208:	50 40       	sbci	r21, 0x00	; 0
    120a:	02 c0       	rjmp	.+4      	; 0x1210 <fastlineBNP+0x22>
    120c:	61 50       	subi	r22, 0x01	; 1
    120e:	70 40       	sbci	r23, 0x00	; 0
    1210:	64 17       	cp	r22, r20
    1212:	75 07       	cpc	r23, r21
    1214:	81 f1       	breq	.+96     	; 0x1276 <fastlineBNP+0x88>
    1216:	f5 bb       	out	0x15, r31	; 21
    1218:	e5 bb       	out	0x15, r30	; 21
    121a:	ac 0d       	add	r26, r12
    121c:	bd 1d       	adc	r27, r13
    121e:	ae 15       	cp	r26, r14
    1220:	bf 05       	cpc	r27, r15
    1222:	a0 f3       	brcs	.-24     	; 0x120c <fastlineBNP+0x1e>
    1224:	ae 19       	sub	r26, r14
    1226:	bf 09       	sbc	r27, r15
    1228:	61 50       	subi	r22, 0x01	; 1
    122a:	70 40       	sbci	r23, 0x00	; 0
    122c:	2f 5f       	subi	r18, 0xFF	; 255
    122e:	3f 4f       	sbci	r19, 0xFF	; 255
    1230:	ae 98       	cbi	0x15, 6	; 21
    1232:	c0 e0       	ldi	r28, 0x00	; 0
    1234:	c2 bb       	out	0x12, r28	; 18
    1236:	ce e4       	ldi	r28, 0x4E	; 78
    1238:	cb bb       	out	0x1b, r28	; 27
    123a:	af 98       	cbi	0x15, 7	; 21
    123c:	af 9a       	sbi	0x15, 7	; 21
    123e:	ae 9a       	sbi	0x15, 6	; 21
    1240:	72 bb       	out	0x12, r23	; 18
    1242:	6b bb       	out	0x1b, r22	; 27
    1244:	af 98       	cbi	0x15, 7	; 21
    1246:	af 9a       	sbi	0x15, 7	; 21
    1248:	ae 98       	cbi	0x15, 6	; 21
    124a:	c0 e0       	ldi	r28, 0x00	; 0
    124c:	c2 bb       	out	0x12, r28	; 18
    124e:	cf e4       	ldi	r28, 0x4F	; 79
    1250:	cb bb       	out	0x1b, r28	; 27
    1252:	af 98       	cbi	0x15, 7	; 21
    1254:	af 9a       	sbi	0x15, 7	; 21
    1256:	ae 9a       	sbi	0x15, 6	; 21
    1258:	32 bb       	out	0x12, r19	; 18
    125a:	2b bb       	out	0x1b, r18	; 27
    125c:	af 98       	cbi	0x15, 7	; 21
    125e:	af 9a       	sbi	0x15, 7	; 21
    1260:	ae 98       	cbi	0x15, 6	; 21
    1262:	c0 e0       	ldi	r28, 0x00	; 0
    1264:	c2 bb       	out	0x12, r28	; 18
    1266:	c2 e2       	ldi	r28, 0x22	; 34
    1268:	cb bb       	out	0x1b, r28	; 27
    126a:	af 98       	cbi	0x15, 7	; 21
    126c:	af 9a       	sbi	0x15, 7	; 21
    126e:	ae 9a       	sbi	0x15, 6	; 21
    1270:	8b bb       	out	0x1b, r24	; 27
    1272:	92 bb       	out	0x12, r25	; 18
    1274:	cd cf       	rjmp	.-102    	; 0x1210 <fastlineBNP+0x22>
    1276:	cf 91       	pop	r28
    1278:	08 95       	ret

0000127a <fastlineBNN>:

fastlineBNN:
FAST_LINE_B SUB16 SUB16
    127a:	cf 93       	push	r28
    127c:	e5 b3       	in	r30, 0x15	; 21
    127e:	fe 2f       	mov	r31, r30
    1280:	68 94       	set
    1282:	e7 f9       	bld	r30, 7
    1284:	e8 94       	clt
    1286:	f7 f9       	bld	r31, 7
    1288:	8b bb       	out	0x1b, r24	; 27
    128a:	92 bb       	out	0x12, r25	; 18
    128c:	d7 01       	movw	r26, r14
    128e:	b6 95       	lsr	r27
    1290:	a7 95       	ror	r26
    1292:	41 50       	subi	r20, 0x01	; 1
    1294:	50 40       	sbci	r21, 0x00	; 0
    1296:	02 c0       	rjmp	.+4      	; 0x129c <fastlineBNN+0x22>
    1298:	61 50       	subi	r22, 0x01	; 1
    129a:	70 40       	sbci	r23, 0x00	; 0
    129c:	64 17       	cp	r22, r20
    129e:	75 07       	cpc	r23, r21
    12a0:	81 f1       	breq	.+96     	; 0x1302 <fastlineBNN+0x88>
    12a2:	f5 bb       	out	0x15, r31	; 21
    12a4:	e5 bb       	out	0x15, r30	; 21
    12a6:	ac 0d       	add	r26, r12
    12a8:	bd 1d       	adc	r27, r13
    12aa:	ae 15       	cp	r26, r14
    12ac:	bf 05       	cpc	r27, r15
    12ae:	a0 f3       	brcs	.-24     	; 0x1298 <fastlineBNN+0x1e>
    12b0:	ae 19       	sub	r26, r14
    12b2:	bf 09       	sbc	r27, r15
    12b4:	61 50       	subi	r22, 0x01	; 1
    12b6:	70 40       	sbci	r23, 0x00	; 0
    12b8:	21 50       	subi	r18, 0x01	; 1
    12ba:	30 40       	sbci	r19, 0x00	; 0
    12bc:	ae 98       	cbi	0x15, 6	; 21
    12be:	c0 e0       	ldi	r28, 0x00	; 0
    12c0:	c2 bb       	out	0x12, r28	; 18
    12c2:	ce e4       	ldi	r28, 0x4E	; 78
    12c4:	cb bb       	out	0x1b, r28	; 27
    12c6:	af 98       	cbi	0x15, 7	; 21
    12c8:	af 9a       	sbi	0x15, 7	; 21
    12ca:	ae 9a       	sbi	0x15, 6	; 21
    12cc:	72 bb       	out	0x12, r23	; 18
    12ce:	6b bb       	out	0x1b, r22	; 27
    12d0:	af 98       	cbi	0x15, 7	; 21
    12d2:	af 9a       	sbi	0x15, 7	; 21
    12d4:	ae 98       	cbi	0x15, 6	; 21
    12d6:	c0 e0       	ldi	r28, 0x00	; 0
    12d8:	c2 bb       	out	0x12, r28	; 18
    12da:	cf e4       	ldi	r28, 0x4F	; 79
    12dc:	cb bb       	out	0x1b, r28	; 27
    12de:	af 98       	cbi	0x15, 7	; 21
    12e0:	af 9a       	sbi	0x15, 7	; 21
    12e2:	ae 9a       	sbi	0x15, 6	; 21
    12e4:	32 bb       	out	0x12, r19	; 18
    12e6:	2b bb       	out	0x1b, r18	; 27
    12e8:	af 98       	cbi	0x15, 7	; 21
    12ea:	af 9a       	sbi	0x15, 7	; 21
    12ec:	ae 98       	cbi	0x15, 6	; 21
    12ee:	c0 e0       	ldi	r28, 0x00	; 0
    12f0:	c2 bb       	out	0x12, r28	; 18
    12f2:	c2 e2       	ldi	r28, 0x22	; 34
    12f4:	cb bb       	out	0x1b, r28	; 27
    12f6:	af 98       	cbi	0x15, 7	; 21
    12f8:	af 9a       	sbi	0x15, 7	; 21
    12fa:	ae 9a       	sbi	0x15, 6	; 21
    12fc:	8b bb       	out	0x1b, r24	; 27
    12fe:	92 bb       	out	0x12, r25	; 18
    1300:	cd cf       	rjmp	.-102    	; 0x129c <fastlineBNN+0x22>
    1302:	cf 91       	pop	r28
    1304:	08 95       	ret

00001306 <_Z41__static_initialization_and_destruction_0ii>:
				numberOfSimons++;
				countAnswer = 0;
			}
		}
	}
    1306:	01 97       	sbiw	r24, 0x01	; 1
    1308:	79 f4       	brne	.+30     	; 0x1328 <_Z41__static_initialization_and_destruction_0ii+0x22>
    130a:	6f 3f       	cpi	r22, 0xFF	; 255
    130c:	7f 4f       	sbci	r23, 0xFF	; 255
    130e:	61 f4       	brne	.+24     	; 0x1328 <_Z41__static_initialization_and_destruction_0ii+0x22>


/*
* Global variables
*/
UTFT display; //Display class
    1310:	84 ee       	ldi	r24, 0xE4	; 228
    1312:	90 e0       	ldi	r25, 0x00	; 0
    1314:	0e 94 7e 10 	call	0x20fc	; 0x20fc <_ZN4UTFTC1Ev>
			_delay_ms(500);
		}
	}
};

Simon simonArray[20];
    1318:	83 e1       	ldi	r24, 0x13	; 19
    131a:	90 e0       	ldi	r25, 0x00	; 0
    131c:	8f 3f       	cpi	r24, 0xFF	; 255
    131e:	2f ef       	ldi	r18, 0xFF	; 255
    1320:	92 07       	cpc	r25, r18
    1322:	11 f0       	breq	.+4      	; 0x1328 <_Z41__static_initialization_and_destruction_0ii+0x22>
    1324:	01 97       	sbiw	r24, 0x01	; 1
    1326:	fa cf       	rjmp	.-12     	; 0x131c <_Z41__static_initialization_and_destruction_0ii+0x16>
    1328:	08 95       	ret

0000132a <_Z8drawLinev>:

//lcd display is 320x240

//create function that will draw horizontal line and vertical line that will be used to split the screen in 4 quadrants
void drawLine()
{
    132a:	0f 93       	push	r16
    132c:	1f 93       	push	r17
	display.setFont(BigFont);
    132e:	62 e7       	ldi	r22, 0x72	; 114
    1330:	70 e0       	ldi	r23, 0x00	; 0
    1332:	84 ee       	ldi	r24, 0xE4	; 228
    1334:	90 e0       	ldi	r25, 0x00	; 0
    1336:	0e 94 e6 16 	call	0x2dcc	; 0x2dcc <_ZN4UTFT7setFontEPKh>
	display.setColor(WHITE);
    133a:	2f ef       	ldi	r18, 0xFF	; 255
    133c:	4f ef       	ldi	r20, 0xFF	; 255
    133e:	6f ef       	ldi	r22, 0xFF	; 255
    1340:	84 ee       	ldi	r24, 0xE4	; 228
    1342:	90 e0       	ldi	r25, 0x00	; 0
    1344:	0e 94 6e 11 	call	0x22dc	; 0x22dc <_ZN4UTFT8setColorEhhh>
	display.drawLine(MIDDLE_VERTICAL_LINE);
    1348:	0f ee       	ldi	r16, 0xEF	; 239
    134a:	10 e0       	ldi	r17, 0x00	; 0
    134c:	26 e9       	ldi	r18, 0x96	; 150
    134e:	30 e0       	ldi	r19, 0x00	; 0
    1350:	40 e0       	ldi	r20, 0x00	; 0
    1352:	50 e0       	ldi	r21, 0x00	; 0
    1354:	66 e9       	ldi	r22, 0x96	; 150
    1356:	70 e0       	ldi	r23, 0x00	; 0
    1358:	84 ee       	ldi	r24, 0xE4	; 228
    135a:	90 e0       	ldi	r25, 0x00	; 0
    135c:	0e 94 30 12 	call	0x2460	; 0x2460 <_ZN4UTFT8drawLineEiiii>
	display.drawLine(MIDDLE_HORIZONTAL_LINE);
    1360:	08 e7       	ldi	r16, 0x78	; 120
    1362:	10 e0       	ldi	r17, 0x00	; 0
    1364:	2f e3       	ldi	r18, 0x3F	; 63
    1366:	31 e0       	ldi	r19, 0x01	; 1
    1368:	48 e7       	ldi	r20, 0x78	; 120
    136a:	50 e0       	ldi	r21, 0x00	; 0
    136c:	60 e0       	ldi	r22, 0x00	; 0
    136e:	70 e0       	ldi	r23, 0x00	; 0
    1370:	84 ee       	ldi	r24, 0xE4	; 228
    1372:	90 e0       	ldi	r25, 0x00	; 0
    1374:	0e 94 30 12 	call	0x2460	; 0x2460 <_ZN4UTFT8drawLineEiiii>
	
	
	//make each rectangle different color
	display.setColor(RED);
    1378:	20 e0       	ldi	r18, 0x00	; 0
    137a:	40 e0       	ldi	r20, 0x00	; 0
    137c:	6f ef       	ldi	r22, 0xFF	; 255
    137e:	84 ee       	ldi	r24, 0xE4	; 228
    1380:	90 e0       	ldi	r25, 0x00	; 0
    1382:	0e 94 6e 11 	call	0x22dc	; 0x22dc <_ZN4UTFT8setColorEhhh>
	display.fillRect(0, 0, 150, 120);
    1386:	26 e9       	ldi	r18, 0x96	; 150
    1388:	30 e0       	ldi	r19, 0x00	; 0
    138a:	40 e0       	ldi	r20, 0x00	; 0
    138c:	50 e0       	ldi	r21, 0x00	; 0
    138e:	60 e0       	ldi	r22, 0x00	; 0
    1390:	70 e0       	ldi	r23, 0x00	; 0
    1392:	84 ee       	ldi	r24, 0xE4	; 228
    1394:	90 e0       	ldi	r25, 0x00	; 0
    1396:	0e 94 d8 10 	call	0x21b0	; 0x21b0 <_ZN4UTFT8fillRectEiiii>
	display.setColor(WHITE);
    139a:	2f ef       	ldi	r18, 0xFF	; 255
    139c:	4f ef       	ldi	r20, 0xFF	; 255
    139e:	6f ef       	ldi	r22, 0xFF	; 255
    13a0:	84 ee       	ldi	r24, 0xE4	; 228
    13a2:	90 e0       	ldi	r25, 0x00	; 0
    13a4:	0e 94 6e 11 	call	0x22dc	; 0x22dc <_ZN4UTFT8setColorEhhh>
	display.print("Key1", 50, 60);
    13a8:	00 e0       	ldi	r16, 0x00	; 0
    13aa:	10 e0       	ldi	r17, 0x00	; 0
    13ac:	2c e3       	ldi	r18, 0x3C	; 60
    13ae:	30 e0       	ldi	r19, 0x00	; 0
    13b0:	42 e3       	ldi	r20, 0x32	; 50
    13b2:	50 e0       	ldi	r21, 0x00	; 0
    13b4:	68 e6       	ldi	r22, 0x68	; 104
    13b6:	70 e0       	ldi	r23, 0x00	; 0
    13b8:	84 ee       	ldi	r24, 0xE4	; 228
    13ba:	90 e0       	ldi	r25, 0x00	; 0
    13bc:	0e 94 0b 16 	call	0x2c16	; 0x2c16 <_ZN4UTFT5printEPKciii>
	
	
	display.setColor(GREEN);
    13c0:	20 e0       	ldi	r18, 0x00	; 0
    13c2:	4f ef       	ldi	r20, 0xFF	; 255
    13c4:	60 e0       	ldi	r22, 0x00	; 0
    13c6:	84 ee       	ldi	r24, 0xE4	; 228
    13c8:	90 e0       	ldi	r25, 0x00	; 0
    13ca:	0e 94 6e 11 	call	0x22dc	; 0x22dc <_ZN4UTFT8setColorEhhh>
	display.fillRect(0, 120, 150, 239);
    13ce:	0f ee       	ldi	r16, 0xEF	; 239
    13d0:	10 e0       	ldi	r17, 0x00	; 0
    13d2:	26 e9       	ldi	r18, 0x96	; 150
    13d4:	30 e0       	ldi	r19, 0x00	; 0
    13d6:	48 e7       	ldi	r20, 0x78	; 120
    13d8:	50 e0       	ldi	r21, 0x00	; 0
    13da:	60 e0       	ldi	r22, 0x00	; 0
    13dc:	70 e0       	ldi	r23, 0x00	; 0
    13de:	84 ee       	ldi	r24, 0xE4	; 228
    13e0:	90 e0       	ldi	r25, 0x00	; 0
    13e2:	0e 94 d8 10 	call	0x21b0	; 0x21b0 <_ZN4UTFT8fillRectEiiii>
	display.setColor(WHITE);
    13e6:	2f ef       	ldi	r18, 0xFF	; 255
    13e8:	4f ef       	ldi	r20, 0xFF	; 255
    13ea:	6f ef       	ldi	r22, 0xFF	; 255
    13ec:	84 ee       	ldi	r24, 0xE4	; 228
    13ee:	90 e0       	ldi	r25, 0x00	; 0
    13f0:	0e 94 6e 11 	call	0x22dc	; 0x22dc <_ZN4UTFT8setColorEhhh>
	display.print("Key3", 50, 180);
    13f4:	00 e0       	ldi	r16, 0x00	; 0
    13f6:	10 e0       	ldi	r17, 0x00	; 0
    13f8:	24 eb       	ldi	r18, 0xB4	; 180
    13fa:	30 e0       	ldi	r19, 0x00	; 0
    13fc:	42 e3       	ldi	r20, 0x32	; 50
    13fe:	50 e0       	ldi	r21, 0x00	; 0
    1400:	6d e6       	ldi	r22, 0x6D	; 109
    1402:	70 e0       	ldi	r23, 0x00	; 0
    1404:	84 ee       	ldi	r24, 0xE4	; 228
    1406:	90 e0       	ldi	r25, 0x00	; 0
    1408:	0e 94 0b 16 	call	0x2c16	; 0x2c16 <_ZN4UTFT5printEPKciii>
	
	
	display.setColor(BLUE);
    140c:	2c ec       	ldi	r18, 0xCC	; 204
    140e:	40 e0       	ldi	r20, 0x00	; 0
    1410:	60 e0       	ldi	r22, 0x00	; 0
    1412:	84 ee       	ldi	r24, 0xE4	; 228
    1414:	90 e0       	ldi	r25, 0x00	; 0
    1416:	0e 94 6e 11 	call	0x22dc	; 0x22dc <_ZN4UTFT8setColorEhhh>
	display.fillRect(150, 0, 319, 120);
    141a:	08 e7       	ldi	r16, 0x78	; 120
    141c:	10 e0       	ldi	r17, 0x00	; 0
    141e:	2f e3       	ldi	r18, 0x3F	; 63
    1420:	31 e0       	ldi	r19, 0x01	; 1
    1422:	40 e0       	ldi	r20, 0x00	; 0
    1424:	50 e0       	ldi	r21, 0x00	; 0
    1426:	66 e9       	ldi	r22, 0x96	; 150
    1428:	70 e0       	ldi	r23, 0x00	; 0
    142a:	84 ee       	ldi	r24, 0xE4	; 228
    142c:	90 e0       	ldi	r25, 0x00	; 0
    142e:	0e 94 d8 10 	call	0x21b0	; 0x21b0 <_ZN4UTFT8fillRectEiiii>
	display.setColor(WHITE);
    1432:	2f ef       	ldi	r18, 0xFF	; 255
    1434:	4f ef       	ldi	r20, 0xFF	; 255
    1436:	6f ef       	ldi	r22, 0xFF	; 255
    1438:	84 ee       	ldi	r24, 0xE4	; 228
    143a:	90 e0       	ldi	r25, 0x00	; 0
    143c:	0e 94 6e 11 	call	0x22dc	; 0x22dc <_ZN4UTFT8setColorEhhh>
	display.print("Key2", 200, 60);
    1440:	00 e0       	ldi	r16, 0x00	; 0
    1442:	10 e0       	ldi	r17, 0x00	; 0
    1444:	2c e3       	ldi	r18, 0x3C	; 60
    1446:	30 e0       	ldi	r19, 0x00	; 0
    1448:	48 ec       	ldi	r20, 0xC8	; 200
    144a:	50 e0       	ldi	r21, 0x00	; 0
    144c:	62 e7       	ldi	r22, 0x72	; 114
    144e:	70 e0       	ldi	r23, 0x00	; 0
    1450:	84 ee       	ldi	r24, 0xE4	; 228
    1452:	90 e0       	ldi	r25, 0x00	; 0
    1454:	0e 94 0b 16 	call	0x2c16	; 0x2c16 <_ZN4UTFT5printEPKciii>
	
	
	display.setColor(YELLOW);
    1458:	20 e0       	ldi	r18, 0x00	; 0
    145a:	4f ef       	ldi	r20, 0xFF	; 255
    145c:	6f ef       	ldi	r22, 0xFF	; 255
    145e:	84 ee       	ldi	r24, 0xE4	; 228
    1460:	90 e0       	ldi	r25, 0x00	; 0
    1462:	0e 94 6e 11 	call	0x22dc	; 0x22dc <_ZN4UTFT8setColorEhhh>
	display.fillRect(150, 120, 319, 239);
    1466:	0f ee       	ldi	r16, 0xEF	; 239
    1468:	10 e0       	ldi	r17, 0x00	; 0
    146a:	2f e3       	ldi	r18, 0x3F	; 63
    146c:	31 e0       	ldi	r19, 0x01	; 1
    146e:	48 e7       	ldi	r20, 0x78	; 120
    1470:	50 e0       	ldi	r21, 0x00	; 0
    1472:	66 e9       	ldi	r22, 0x96	; 150
    1474:	70 e0       	ldi	r23, 0x00	; 0
    1476:	84 ee       	ldi	r24, 0xE4	; 228
    1478:	90 e0       	ldi	r25, 0x00	; 0
    147a:	0e 94 d8 10 	call	0x21b0	; 0x21b0 <_ZN4UTFT8fillRectEiiii>
	display.setColor(WHITE);
    147e:	2f ef       	ldi	r18, 0xFF	; 255
    1480:	4f ef       	ldi	r20, 0xFF	; 255
    1482:	6f ef       	ldi	r22, 0xFF	; 255
    1484:	84 ee       	ldi	r24, 0xE4	; 228
    1486:	90 e0       	ldi	r25, 0x00	; 0
    1488:	0e 94 6e 11 	call	0x22dc	; 0x22dc <_ZN4UTFT8setColorEhhh>
	display.print("Key4", 200, 180);
    148c:	00 e0       	ldi	r16, 0x00	; 0
    148e:	10 e0       	ldi	r17, 0x00	; 0
    1490:	24 eb       	ldi	r18, 0xB4	; 180
    1492:	30 e0       	ldi	r19, 0x00	; 0
    1494:	48 ec       	ldi	r20, 0xC8	; 200
    1496:	50 e0       	ldi	r21, 0x00	; 0
    1498:	67 e7       	ldi	r22, 0x77	; 119
    149a:	70 e0       	ldi	r23, 0x00	; 0
    149c:	84 ee       	ldi	r24, 0xE4	; 228
    149e:	90 e0       	ldi	r25, 0x00	; 0
    14a0:	0e 94 0b 16 	call	0x2c16	; 0x2c16 <_ZN4UTFT5printEPKciii>
}
    14a4:	1f 91       	pop	r17
    14a6:	0f 91       	pop	r16
    14a8:	08 95       	ret

000014aa <_ZN5Simon9flashRectEv>:
	Simon(int rect)
	{
		this->rect = rect;
	}

	void flashRect(){
    14aa:	0f 93       	push	r16
    14ac:	1f 93       	push	r17
    14ae:	cf 93       	push	r28
    14b0:	df 93       	push	r29
    14b2:	ec 01       	movw	r28, r24
		if(rect == 1){
    14b4:	88 81       	ld	r24, Y
    14b6:	99 81       	ldd	r25, Y+1	; 0x01
    14b8:	01 97       	sbiw	r24, 0x01	; 1
    14ba:	09 f0       	breq	.+2      	; 0x14be <_ZN5Simon9flashRectEv+0x14>
    14bc:	e2 c0       	rjmp	.+452    	; 0x1682 <_ZN5Simon9flashRectEv+0x1d8>
			display.setFont(BigFont);
    14be:	62 e7       	ldi	r22, 0x72	; 114
    14c0:	70 e0       	ldi	r23, 0x00	; 0
    14c2:	84 ee       	ldi	r24, 0xE4	; 228
    14c4:	90 e0       	ldi	r25, 0x00	; 0
    14c6:	0e 94 e6 16 	call	0x2dcc	; 0x2dcc <_ZN4UTFT7setFontEPKh>
			display.setColor(WHITE);
    14ca:	2f ef       	ldi	r18, 0xFF	; 255
    14cc:	4f ef       	ldi	r20, 0xFF	; 255
    14ce:	6f ef       	ldi	r22, 0xFF	; 255
    14d0:	84 ee       	ldi	r24, 0xE4	; 228
    14d2:	90 e0       	ldi	r25, 0x00	; 0
    14d4:	0e 94 6e 11 	call	0x22dc	; 0x22dc <_ZN4UTFT8setColorEhhh>
			display.drawLine(MIDDLE_VERTICAL_LINE);
    14d8:	0f ee       	ldi	r16, 0xEF	; 239
    14da:	10 e0       	ldi	r17, 0x00	; 0
    14dc:	26 e9       	ldi	r18, 0x96	; 150
    14de:	30 e0       	ldi	r19, 0x00	; 0
    14e0:	40 e0       	ldi	r20, 0x00	; 0
    14e2:	50 e0       	ldi	r21, 0x00	; 0
    14e4:	66 e9       	ldi	r22, 0x96	; 150
    14e6:	70 e0       	ldi	r23, 0x00	; 0
    14e8:	84 ee       	ldi	r24, 0xE4	; 228
    14ea:	90 e0       	ldi	r25, 0x00	; 0
    14ec:	0e 94 30 12 	call	0x2460	; 0x2460 <_ZN4UTFT8drawLineEiiii>
			display.drawLine(MIDDLE_HORIZONTAL_LINE);
    14f0:	08 e7       	ldi	r16, 0x78	; 120
    14f2:	10 e0       	ldi	r17, 0x00	; 0
    14f4:	2f e3       	ldi	r18, 0x3F	; 63
    14f6:	31 e0       	ldi	r19, 0x01	; 1
    14f8:	48 e7       	ldi	r20, 0x78	; 120
    14fa:	50 e0       	ldi	r21, 0x00	; 0
    14fc:	60 e0       	ldi	r22, 0x00	; 0
    14fe:	70 e0       	ldi	r23, 0x00	; 0
    1500:	84 ee       	ldi	r24, 0xE4	; 228
    1502:	90 e0       	ldi	r25, 0x00	; 0
    1504:	0e 94 30 12 	call	0x2460	; 0x2460 <_ZN4UTFT8drawLineEiiii>
			
			display.setColor(GREEN);
    1508:	20 e0       	ldi	r18, 0x00	; 0
    150a:	4f ef       	ldi	r20, 0xFF	; 255
    150c:	60 e0       	ldi	r22, 0x00	; 0
    150e:	84 ee       	ldi	r24, 0xE4	; 228
    1510:	90 e0       	ldi	r25, 0x00	; 0
    1512:	0e 94 6e 11 	call	0x22dc	; 0x22dc <_ZN4UTFT8setColorEhhh>
			display.fillRect(0, 120, 150, 239);
    1516:	0f ee       	ldi	r16, 0xEF	; 239
    1518:	10 e0       	ldi	r17, 0x00	; 0
    151a:	26 e9       	ldi	r18, 0x96	; 150
    151c:	30 e0       	ldi	r19, 0x00	; 0
    151e:	48 e7       	ldi	r20, 0x78	; 120
    1520:	50 e0       	ldi	r21, 0x00	; 0
    1522:	60 e0       	ldi	r22, 0x00	; 0
    1524:	70 e0       	ldi	r23, 0x00	; 0
    1526:	84 ee       	ldi	r24, 0xE4	; 228
    1528:	90 e0       	ldi	r25, 0x00	; 0
    152a:	0e 94 d8 10 	call	0x21b0	; 0x21b0 <_ZN4UTFT8fillRectEiiii>
			display.setColor(WHITE);
    152e:	2f ef       	ldi	r18, 0xFF	; 255
    1530:	4f ef       	ldi	r20, 0xFF	; 255
    1532:	6f ef       	ldi	r22, 0xFF	; 255
    1534:	84 ee       	ldi	r24, 0xE4	; 228
    1536:	90 e0       	ldi	r25, 0x00	; 0
    1538:	0e 94 6e 11 	call	0x22dc	; 0x22dc <_ZN4UTFT8setColorEhhh>
			display.print("Key3", 50, 180);
    153c:	00 e0       	ldi	r16, 0x00	; 0
    153e:	10 e0       	ldi	r17, 0x00	; 0
    1540:	24 eb       	ldi	r18, 0xB4	; 180
    1542:	30 e0       	ldi	r19, 0x00	; 0
    1544:	42 e3       	ldi	r20, 0x32	; 50
    1546:	50 e0       	ldi	r21, 0x00	; 0
    1548:	6d e6       	ldi	r22, 0x6D	; 109
    154a:	70 e0       	ldi	r23, 0x00	; 0
    154c:	84 ee       	ldi	r24, 0xE4	; 228
    154e:	90 e0       	ldi	r25, 0x00	; 0
    1550:	0e 94 0b 16 	call	0x2c16	; 0x2c16 <_ZN4UTFT5printEPKciii>
			
			
			display.setColor(BLUE);
    1554:	2c ec       	ldi	r18, 0xCC	; 204
    1556:	40 e0       	ldi	r20, 0x00	; 0
    1558:	60 e0       	ldi	r22, 0x00	; 0
    155a:	84 ee       	ldi	r24, 0xE4	; 228
    155c:	90 e0       	ldi	r25, 0x00	; 0
    155e:	0e 94 6e 11 	call	0x22dc	; 0x22dc <_ZN4UTFT8setColorEhhh>
			display.fillRect(150, 0, 319, 120);
    1562:	08 e7       	ldi	r16, 0x78	; 120
    1564:	10 e0       	ldi	r17, 0x00	; 0
    1566:	2f e3       	ldi	r18, 0x3F	; 63
    1568:	31 e0       	ldi	r19, 0x01	; 1
    156a:	40 e0       	ldi	r20, 0x00	; 0
    156c:	50 e0       	ldi	r21, 0x00	; 0
    156e:	66 e9       	ldi	r22, 0x96	; 150
    1570:	70 e0       	ldi	r23, 0x00	; 0
    1572:	84 ee       	ldi	r24, 0xE4	; 228
    1574:	90 e0       	ldi	r25, 0x00	; 0
    1576:	0e 94 d8 10 	call	0x21b0	; 0x21b0 <_ZN4UTFT8fillRectEiiii>
			display.setColor(WHITE);
    157a:	2f ef       	ldi	r18, 0xFF	; 255
    157c:	4f ef       	ldi	r20, 0xFF	; 255
    157e:	6f ef       	ldi	r22, 0xFF	; 255
    1580:	84 ee       	ldi	r24, 0xE4	; 228
    1582:	90 e0       	ldi	r25, 0x00	; 0
    1584:	0e 94 6e 11 	call	0x22dc	; 0x22dc <_ZN4UTFT8setColorEhhh>
			display.print("Key2", 200, 60);
    1588:	00 e0       	ldi	r16, 0x00	; 0
    158a:	10 e0       	ldi	r17, 0x00	; 0
    158c:	2c e3       	ldi	r18, 0x3C	; 60
    158e:	30 e0       	ldi	r19, 0x00	; 0
    1590:	48 ec       	ldi	r20, 0xC8	; 200
    1592:	50 e0       	ldi	r21, 0x00	; 0
    1594:	62 e7       	ldi	r22, 0x72	; 114
    1596:	70 e0       	ldi	r23, 0x00	; 0
    1598:	84 ee       	ldi	r24, 0xE4	; 228
    159a:	90 e0       	ldi	r25, 0x00	; 0
    159c:	0e 94 0b 16 	call	0x2c16	; 0x2c16 <_ZN4UTFT5printEPKciii>
			
			
			display.setColor(YELLOW);
    15a0:	20 e0       	ldi	r18, 0x00	; 0
    15a2:	4f ef       	ldi	r20, 0xFF	; 255
    15a4:	6f ef       	ldi	r22, 0xFF	; 255
    15a6:	84 ee       	ldi	r24, 0xE4	; 228
    15a8:	90 e0       	ldi	r25, 0x00	; 0
    15aa:	0e 94 6e 11 	call	0x22dc	; 0x22dc <_ZN4UTFT8setColorEhhh>
			display.fillRect(150, 120, 319, 239);
    15ae:	0f ee       	ldi	r16, 0xEF	; 239
    15b0:	10 e0       	ldi	r17, 0x00	; 0
    15b2:	2f e3       	ldi	r18, 0x3F	; 63
    15b4:	31 e0       	ldi	r19, 0x01	; 1
    15b6:	48 e7       	ldi	r20, 0x78	; 120
    15b8:	50 e0       	ldi	r21, 0x00	; 0
    15ba:	66 e9       	ldi	r22, 0x96	; 150
    15bc:	70 e0       	ldi	r23, 0x00	; 0
    15be:	84 ee       	ldi	r24, 0xE4	; 228
    15c0:	90 e0       	ldi	r25, 0x00	; 0
    15c2:	0e 94 d8 10 	call	0x21b0	; 0x21b0 <_ZN4UTFT8fillRectEiiii>
			display.setColor(WHITE);
    15c6:	2f ef       	ldi	r18, 0xFF	; 255
    15c8:	4f ef       	ldi	r20, 0xFF	; 255
    15ca:	6f ef       	ldi	r22, 0xFF	; 255
    15cc:	84 ee       	ldi	r24, 0xE4	; 228
    15ce:	90 e0       	ldi	r25, 0x00	; 0
    15d0:	0e 94 6e 11 	call	0x22dc	; 0x22dc <_ZN4UTFT8setColorEhhh>
			display.print("Key4", 200, 180);
    15d4:	00 e0       	ldi	r16, 0x00	; 0
    15d6:	10 e0       	ldi	r17, 0x00	; 0
    15d8:	24 eb       	ldi	r18, 0xB4	; 180
    15da:	30 e0       	ldi	r19, 0x00	; 0
    15dc:	48 ec       	ldi	r20, 0xC8	; 200
    15de:	50 e0       	ldi	r21, 0x00	; 0
    15e0:	67 e7       	ldi	r22, 0x77	; 119
    15e2:	70 e0       	ldi	r23, 0x00	; 0
    15e4:	84 ee       	ldi	r24, 0xE4	; 228
    15e6:	90 e0       	ldi	r25, 0x00	; 0
    15e8:	0e 94 0b 16 	call	0x2c16	; 0x2c16 <_ZN4UTFT5printEPKciii>
			
			display.setColor(RED);
    15ec:	20 e0       	ldi	r18, 0x00	; 0
    15ee:	40 e0       	ldi	r20, 0x00	; 0
    15f0:	6f ef       	ldi	r22, 0xFF	; 255
    15f2:	84 ee       	ldi	r24, 0xE4	; 228
    15f4:	90 e0       	ldi	r25, 0x00	; 0
    15f6:	0e 94 6e 11 	call	0x22dc	; 0x22dc <_ZN4UTFT8setColorEhhh>
			display.fillRect(0, 0, 150, 120);
    15fa:	08 e7       	ldi	r16, 0x78	; 120
    15fc:	10 e0       	ldi	r17, 0x00	; 0
    15fe:	26 e9       	ldi	r18, 0x96	; 150
    1600:	30 e0       	ldi	r19, 0x00	; 0
    1602:	40 e0       	ldi	r20, 0x00	; 0
    1604:	50 e0       	ldi	r21, 0x00	; 0
    1606:	60 e0       	ldi	r22, 0x00	; 0
    1608:	70 e0       	ldi	r23, 0x00	; 0
    160a:	84 ee       	ldi	r24, 0xE4	; 228
    160c:	90 e0       	ldi	r25, 0x00	; 0
    160e:	0e 94 d8 10 	call	0x21b0	; 0x21b0 <_ZN4UTFT8fillRectEiiii>
			display.setColor(WHITE);
    1612:	2f ef       	ldi	r18, 0xFF	; 255
    1614:	4f ef       	ldi	r20, 0xFF	; 255
    1616:	6f ef       	ldi	r22, 0xFF	; 255
    1618:	84 ee       	ldi	r24, 0xE4	; 228
    161a:	90 e0       	ldi	r25, 0x00	; 0
    161c:	0e 94 6e 11 	call	0x22dc	; 0x22dc <_ZN4UTFT8setColorEhhh>
			display.print("Key1", 50, 60);
    1620:	00 e0       	ldi	r16, 0x00	; 0
    1622:	10 e0       	ldi	r17, 0x00	; 0
    1624:	2c e3       	ldi	r18, 0x3C	; 60
    1626:	30 e0       	ldi	r19, 0x00	; 0
    1628:	42 e3       	ldi	r20, 0x32	; 50
    162a:	50 e0       	ldi	r21, 0x00	; 0
    162c:	68 e6       	ldi	r22, 0x68	; 104
    162e:	70 e0       	ldi	r23, 0x00	; 0
    1630:	84 ee       	ldi	r24, 0xE4	; 228
    1632:	90 e0       	ldi	r25, 0x00	; 0
    1634:	0e 94 0b 16 	call	0x2c16	; 0x2c16 <_ZN4UTFT5printEPKciii>
	#else
		//round up by default
		__ticks_dc = (uint32_t)(ceil(fabs(__tmp)));
	#endif

	__builtin_avr_delay_cycles(__ticks_dc);
    1638:	2f ef       	ldi	r18, 0xFF	; 255
    163a:	8f e3       	ldi	r24, 0x3F	; 63
    163c:	9b e0       	ldi	r25, 0x0B	; 11
    163e:	21 50       	subi	r18, 0x01	; 1
    1640:	80 40       	sbci	r24, 0x00	; 0
    1642:	90 40       	sbci	r25, 0x00	; 0
    1644:	e1 f7       	brne	.-8      	; 0x163e <_ZN5Simon9flashRectEv+0x194>
    1646:	00 c0       	rjmp	.+0      	; 0x1648 <_ZN5Simon9flashRectEv+0x19e>
    1648:	00 00       	nop
			_delay_ms(500);
			display.setColor(RED);
    164a:	20 e0       	ldi	r18, 0x00	; 0
    164c:	40 e0       	ldi	r20, 0x00	; 0
    164e:	6f ef       	ldi	r22, 0xFF	; 255
    1650:	84 ee       	ldi	r24, 0xE4	; 228
    1652:	90 e0       	ldi	r25, 0x00	; 0
    1654:	0e 94 6e 11 	call	0x22dc	; 0x22dc <_ZN4UTFT8setColorEhhh>
			display.fillRect(0, 0, 150, 120);
    1658:	08 e7       	ldi	r16, 0x78	; 120
    165a:	10 e0       	ldi	r17, 0x00	; 0
    165c:	26 e9       	ldi	r18, 0x96	; 150
    165e:	30 e0       	ldi	r19, 0x00	; 0
    1660:	40 e0       	ldi	r20, 0x00	; 0
    1662:	50 e0       	ldi	r21, 0x00	; 0
    1664:	60 e0       	ldi	r22, 0x00	; 0
    1666:	70 e0       	ldi	r23, 0x00	; 0
    1668:	84 ee       	ldi	r24, 0xE4	; 228
    166a:	90 e0       	ldi	r25, 0x00	; 0
    166c:	0e 94 d8 10 	call	0x21b0	; 0x21b0 <_ZN4UTFT8fillRectEiiii>
    1670:	2f ef       	ldi	r18, 0xFF	; 255
    1672:	8f e3       	ldi	r24, 0x3F	; 63
    1674:	9b e0       	ldi	r25, 0x0B	; 11
    1676:	21 50       	subi	r18, 0x01	; 1
    1678:	80 40       	sbci	r24, 0x00	; 0
    167a:	90 40       	sbci	r25, 0x00	; 0
    167c:	e1 f7       	brne	.-8      	; 0x1676 <_ZN5Simon9flashRectEv+0x1cc>
    167e:	00 c0       	rjmp	.+0      	; 0x1680 <_ZN5Simon9flashRectEv+0x1d6>
    1680:	00 00       	nop
			_delay_ms(500);
		}
		if(rect == 3){
    1682:	88 81       	ld	r24, Y
    1684:	99 81       	ldd	r25, Y+1	; 0x01
    1686:	03 97       	sbiw	r24, 0x03	; 3
    1688:	09 f0       	breq	.+2      	; 0x168c <_ZN5Simon9flashRectEv+0x1e2>
    168a:	e0 c0       	rjmp	.+448    	; 0x184c <_ZN5Simon9flashRectEv+0x3a2>
			display.setFont(BigFont);
    168c:	62 e7       	ldi	r22, 0x72	; 114
    168e:	70 e0       	ldi	r23, 0x00	; 0
    1690:	84 ee       	ldi	r24, 0xE4	; 228
    1692:	90 e0       	ldi	r25, 0x00	; 0
    1694:	0e 94 e6 16 	call	0x2dcc	; 0x2dcc <_ZN4UTFT7setFontEPKh>
			display.setColor(WHITE);
    1698:	2f ef       	ldi	r18, 0xFF	; 255
    169a:	4f ef       	ldi	r20, 0xFF	; 255
    169c:	6f ef       	ldi	r22, 0xFF	; 255
    169e:	84 ee       	ldi	r24, 0xE4	; 228
    16a0:	90 e0       	ldi	r25, 0x00	; 0
    16a2:	0e 94 6e 11 	call	0x22dc	; 0x22dc <_ZN4UTFT8setColorEhhh>
			display.drawLine(MIDDLE_VERTICAL_LINE);
    16a6:	0f ee       	ldi	r16, 0xEF	; 239
    16a8:	10 e0       	ldi	r17, 0x00	; 0
    16aa:	26 e9       	ldi	r18, 0x96	; 150
    16ac:	30 e0       	ldi	r19, 0x00	; 0
    16ae:	40 e0       	ldi	r20, 0x00	; 0
    16b0:	50 e0       	ldi	r21, 0x00	; 0
    16b2:	66 e9       	ldi	r22, 0x96	; 150
    16b4:	70 e0       	ldi	r23, 0x00	; 0
    16b6:	84 ee       	ldi	r24, 0xE4	; 228
    16b8:	90 e0       	ldi	r25, 0x00	; 0
    16ba:	0e 94 30 12 	call	0x2460	; 0x2460 <_ZN4UTFT8drawLineEiiii>
			display.drawLine(MIDDLE_HORIZONTAL_LINE);
    16be:	08 e7       	ldi	r16, 0x78	; 120
    16c0:	10 e0       	ldi	r17, 0x00	; 0
    16c2:	2f e3       	ldi	r18, 0x3F	; 63
    16c4:	31 e0       	ldi	r19, 0x01	; 1
    16c6:	48 e7       	ldi	r20, 0x78	; 120
    16c8:	50 e0       	ldi	r21, 0x00	; 0
    16ca:	60 e0       	ldi	r22, 0x00	; 0
    16cc:	70 e0       	ldi	r23, 0x00	; 0
    16ce:	84 ee       	ldi	r24, 0xE4	; 228
    16d0:	90 e0       	ldi	r25, 0x00	; 0
    16d2:	0e 94 30 12 	call	0x2460	; 0x2460 <_ZN4UTFT8drawLineEiiii>
			
			display.setColor(BLUE);
    16d6:	2c ec       	ldi	r18, 0xCC	; 204
    16d8:	40 e0       	ldi	r20, 0x00	; 0
    16da:	60 e0       	ldi	r22, 0x00	; 0
    16dc:	84 ee       	ldi	r24, 0xE4	; 228
    16de:	90 e0       	ldi	r25, 0x00	; 0
    16e0:	0e 94 6e 11 	call	0x22dc	; 0x22dc <_ZN4UTFT8setColorEhhh>
			display.fillRect(150, 0, 319, 120);
    16e4:	2f e3       	ldi	r18, 0x3F	; 63
    16e6:	31 e0       	ldi	r19, 0x01	; 1
    16e8:	40 e0       	ldi	r20, 0x00	; 0
    16ea:	50 e0       	ldi	r21, 0x00	; 0
    16ec:	66 e9       	ldi	r22, 0x96	; 150
    16ee:	70 e0       	ldi	r23, 0x00	; 0
    16f0:	84 ee       	ldi	r24, 0xE4	; 228
    16f2:	90 e0       	ldi	r25, 0x00	; 0
    16f4:	0e 94 d8 10 	call	0x21b0	; 0x21b0 <_ZN4UTFT8fillRectEiiii>
			display.setColor(WHITE);
    16f8:	2f ef       	ldi	r18, 0xFF	; 255
    16fa:	4f ef       	ldi	r20, 0xFF	; 255
    16fc:	6f ef       	ldi	r22, 0xFF	; 255
    16fe:	84 ee       	ldi	r24, 0xE4	; 228
    1700:	90 e0       	ldi	r25, 0x00	; 0
    1702:	0e 94 6e 11 	call	0x22dc	; 0x22dc <_ZN4UTFT8setColorEhhh>
			display.print("Key2", 200, 60);
    1706:	00 e0       	ldi	r16, 0x00	; 0
    1708:	10 e0       	ldi	r17, 0x00	; 0
    170a:	2c e3       	ldi	r18, 0x3C	; 60
    170c:	30 e0       	ldi	r19, 0x00	; 0
    170e:	48 ec       	ldi	r20, 0xC8	; 200
    1710:	50 e0       	ldi	r21, 0x00	; 0
    1712:	62 e7       	ldi	r22, 0x72	; 114
    1714:	70 e0       	ldi	r23, 0x00	; 0
    1716:	84 ee       	ldi	r24, 0xE4	; 228
    1718:	90 e0       	ldi	r25, 0x00	; 0
    171a:	0e 94 0b 16 	call	0x2c16	; 0x2c16 <_ZN4UTFT5printEPKciii>
			
			
			display.setColor(YELLOW);
    171e:	20 e0       	ldi	r18, 0x00	; 0
    1720:	4f ef       	ldi	r20, 0xFF	; 255
    1722:	6f ef       	ldi	r22, 0xFF	; 255
    1724:	84 ee       	ldi	r24, 0xE4	; 228
    1726:	90 e0       	ldi	r25, 0x00	; 0
    1728:	0e 94 6e 11 	call	0x22dc	; 0x22dc <_ZN4UTFT8setColorEhhh>
			display.fillRect(150, 120, 319, 239);
    172c:	0f ee       	ldi	r16, 0xEF	; 239
    172e:	10 e0       	ldi	r17, 0x00	; 0
    1730:	2f e3       	ldi	r18, 0x3F	; 63
    1732:	31 e0       	ldi	r19, 0x01	; 1
    1734:	48 e7       	ldi	r20, 0x78	; 120
    1736:	50 e0       	ldi	r21, 0x00	; 0
    1738:	66 e9       	ldi	r22, 0x96	; 150
    173a:	70 e0       	ldi	r23, 0x00	; 0
    173c:	84 ee       	ldi	r24, 0xE4	; 228
    173e:	90 e0       	ldi	r25, 0x00	; 0
    1740:	0e 94 d8 10 	call	0x21b0	; 0x21b0 <_ZN4UTFT8fillRectEiiii>
			display.setColor(WHITE);
    1744:	2f ef       	ldi	r18, 0xFF	; 255
    1746:	4f ef       	ldi	r20, 0xFF	; 255
    1748:	6f ef       	ldi	r22, 0xFF	; 255
    174a:	84 ee       	ldi	r24, 0xE4	; 228
    174c:	90 e0       	ldi	r25, 0x00	; 0
    174e:	0e 94 6e 11 	call	0x22dc	; 0x22dc <_ZN4UTFT8setColorEhhh>
			display.print("Key4", 200, 180);
    1752:	00 e0       	ldi	r16, 0x00	; 0
    1754:	10 e0       	ldi	r17, 0x00	; 0
    1756:	24 eb       	ldi	r18, 0xB4	; 180
    1758:	30 e0       	ldi	r19, 0x00	; 0
    175a:	48 ec       	ldi	r20, 0xC8	; 200
    175c:	50 e0       	ldi	r21, 0x00	; 0
    175e:	67 e7       	ldi	r22, 0x77	; 119
    1760:	70 e0       	ldi	r23, 0x00	; 0
    1762:	84 ee       	ldi	r24, 0xE4	; 228
    1764:	90 e0       	ldi	r25, 0x00	; 0
    1766:	0e 94 0b 16 	call	0x2c16	; 0x2c16 <_ZN4UTFT5printEPKciii>
			
			display.setColor(RED);
    176a:	20 e0       	ldi	r18, 0x00	; 0
    176c:	40 e0       	ldi	r20, 0x00	; 0
    176e:	6f ef       	ldi	r22, 0xFF	; 255
    1770:	84 ee       	ldi	r24, 0xE4	; 228
    1772:	90 e0       	ldi	r25, 0x00	; 0
    1774:	0e 94 6e 11 	call	0x22dc	; 0x22dc <_ZN4UTFT8setColorEhhh>
			display.fillRect(0, 0, 150, 120);
    1778:	08 e7       	ldi	r16, 0x78	; 120
    177a:	10 e0       	ldi	r17, 0x00	; 0
    177c:	26 e9       	ldi	r18, 0x96	; 150
    177e:	30 e0       	ldi	r19, 0x00	; 0
    1780:	40 e0       	ldi	r20, 0x00	; 0
    1782:	50 e0       	ldi	r21, 0x00	; 0
    1784:	60 e0       	ldi	r22, 0x00	; 0
    1786:	70 e0       	ldi	r23, 0x00	; 0
    1788:	84 ee       	ldi	r24, 0xE4	; 228
    178a:	90 e0       	ldi	r25, 0x00	; 0
    178c:	0e 94 d8 10 	call	0x21b0	; 0x21b0 <_ZN4UTFT8fillRectEiiii>
			display.setColor(WHITE);
    1790:	2f ef       	ldi	r18, 0xFF	; 255
    1792:	4f ef       	ldi	r20, 0xFF	; 255
    1794:	6f ef       	ldi	r22, 0xFF	; 255
    1796:	84 ee       	ldi	r24, 0xE4	; 228
    1798:	90 e0       	ldi	r25, 0x00	; 0
    179a:	0e 94 6e 11 	call	0x22dc	; 0x22dc <_ZN4UTFT8setColorEhhh>
			display.print("Key1", 50, 60);
    179e:	00 e0       	ldi	r16, 0x00	; 0
    17a0:	10 e0       	ldi	r17, 0x00	; 0
    17a2:	2c e3       	ldi	r18, 0x3C	; 60
    17a4:	30 e0       	ldi	r19, 0x00	; 0
    17a6:	42 e3       	ldi	r20, 0x32	; 50
    17a8:	50 e0       	ldi	r21, 0x00	; 0
    17aa:	68 e6       	ldi	r22, 0x68	; 104
    17ac:	70 e0       	ldi	r23, 0x00	; 0
    17ae:	84 ee       	ldi	r24, 0xE4	; 228
    17b0:	90 e0       	ldi	r25, 0x00	; 0
    17b2:	0e 94 0b 16 	call	0x2c16	; 0x2c16 <_ZN4UTFT5printEPKciii>
			
			
			display.setColor(GREEN);
    17b6:	20 e0       	ldi	r18, 0x00	; 0
    17b8:	4f ef       	ldi	r20, 0xFF	; 255
    17ba:	60 e0       	ldi	r22, 0x00	; 0
    17bc:	84 ee       	ldi	r24, 0xE4	; 228
    17be:	90 e0       	ldi	r25, 0x00	; 0
    17c0:	0e 94 6e 11 	call	0x22dc	; 0x22dc <_ZN4UTFT8setColorEhhh>
			display.fillRect(0, 120, 150, 239);
    17c4:	0f ee       	ldi	r16, 0xEF	; 239
    17c6:	10 e0       	ldi	r17, 0x00	; 0
    17c8:	26 e9       	ldi	r18, 0x96	; 150
    17ca:	30 e0       	ldi	r19, 0x00	; 0
    17cc:	48 e7       	ldi	r20, 0x78	; 120
    17ce:	50 e0       	ldi	r21, 0x00	; 0
    17d0:	60 e0       	ldi	r22, 0x00	; 0
    17d2:	70 e0       	ldi	r23, 0x00	; 0
    17d4:	84 ee       	ldi	r24, 0xE4	; 228
    17d6:	90 e0       	ldi	r25, 0x00	; 0
    17d8:	0e 94 d8 10 	call	0x21b0	; 0x21b0 <_ZN4UTFT8fillRectEiiii>
			display.setColor(WHITE);
    17dc:	2f ef       	ldi	r18, 0xFF	; 255
    17de:	4f ef       	ldi	r20, 0xFF	; 255
    17e0:	6f ef       	ldi	r22, 0xFF	; 255
    17e2:	84 ee       	ldi	r24, 0xE4	; 228
    17e4:	90 e0       	ldi	r25, 0x00	; 0
    17e6:	0e 94 6e 11 	call	0x22dc	; 0x22dc <_ZN4UTFT8setColorEhhh>
			display.print("Key3", 50, 180);
    17ea:	00 e0       	ldi	r16, 0x00	; 0
    17ec:	10 e0       	ldi	r17, 0x00	; 0
    17ee:	24 eb       	ldi	r18, 0xB4	; 180
    17f0:	30 e0       	ldi	r19, 0x00	; 0
    17f2:	42 e3       	ldi	r20, 0x32	; 50
    17f4:	50 e0       	ldi	r21, 0x00	; 0
    17f6:	6d e6       	ldi	r22, 0x6D	; 109
    17f8:	70 e0       	ldi	r23, 0x00	; 0
    17fa:	84 ee       	ldi	r24, 0xE4	; 228
    17fc:	90 e0       	ldi	r25, 0x00	; 0
    17fe:	0e 94 0b 16 	call	0x2c16	; 0x2c16 <_ZN4UTFT5printEPKciii>
    1802:	2f ef       	ldi	r18, 0xFF	; 255
    1804:	8f e3       	ldi	r24, 0x3F	; 63
    1806:	9b e0       	ldi	r25, 0x0B	; 11
    1808:	21 50       	subi	r18, 0x01	; 1
    180a:	80 40       	sbci	r24, 0x00	; 0
    180c:	90 40       	sbci	r25, 0x00	; 0
    180e:	e1 f7       	brne	.-8      	; 0x1808 <_ZN5Simon9flashRectEv+0x35e>
    1810:	00 c0       	rjmp	.+0      	; 0x1812 <_ZN5Simon9flashRectEv+0x368>
    1812:	00 00       	nop
			_delay_ms(500);
			display.setColor(GREEN);
    1814:	20 e0       	ldi	r18, 0x00	; 0
    1816:	4f ef       	ldi	r20, 0xFF	; 255
    1818:	60 e0       	ldi	r22, 0x00	; 0
    181a:	84 ee       	ldi	r24, 0xE4	; 228
    181c:	90 e0       	ldi	r25, 0x00	; 0
    181e:	0e 94 6e 11 	call	0x22dc	; 0x22dc <_ZN4UTFT8setColorEhhh>
			display.fillRect(0, 120, 150, 239);
    1822:	0f ee       	ldi	r16, 0xEF	; 239
    1824:	10 e0       	ldi	r17, 0x00	; 0
    1826:	26 e9       	ldi	r18, 0x96	; 150
    1828:	30 e0       	ldi	r19, 0x00	; 0
    182a:	48 e7       	ldi	r20, 0x78	; 120
    182c:	50 e0       	ldi	r21, 0x00	; 0
    182e:	60 e0       	ldi	r22, 0x00	; 0
    1830:	70 e0       	ldi	r23, 0x00	; 0
    1832:	84 ee       	ldi	r24, 0xE4	; 228
    1834:	90 e0       	ldi	r25, 0x00	; 0
    1836:	0e 94 d8 10 	call	0x21b0	; 0x21b0 <_ZN4UTFT8fillRectEiiii>
    183a:	2f ef       	ldi	r18, 0xFF	; 255
    183c:	8f e3       	ldi	r24, 0x3F	; 63
    183e:	9b e0       	ldi	r25, 0x0B	; 11
    1840:	21 50       	subi	r18, 0x01	; 1
    1842:	80 40       	sbci	r24, 0x00	; 0
    1844:	90 40       	sbci	r25, 0x00	; 0
    1846:	e1 f7       	brne	.-8      	; 0x1840 <_ZN5Simon9flashRectEv+0x396>
    1848:	00 c0       	rjmp	.+0      	; 0x184a <_ZN5Simon9flashRectEv+0x3a0>
    184a:	00 00       	nop
			_delay_ms(500);
		}
		if(rect == 2){
    184c:	88 81       	ld	r24, Y
    184e:	99 81       	ldd	r25, Y+1	; 0x01
    1850:	02 97       	sbiw	r24, 0x02	; 2
    1852:	09 f0       	breq	.+2      	; 0x1856 <_ZN5Simon9flashRectEv+0x3ac>
    1854:	e2 c0       	rjmp	.+452    	; 0x1a1a <_ZN5Simon9flashRectEv+0x570>
			display.setFont(BigFont);
    1856:	62 e7       	ldi	r22, 0x72	; 114
    1858:	70 e0       	ldi	r23, 0x00	; 0
    185a:	84 ee       	ldi	r24, 0xE4	; 228
    185c:	90 e0       	ldi	r25, 0x00	; 0
    185e:	0e 94 e6 16 	call	0x2dcc	; 0x2dcc <_ZN4UTFT7setFontEPKh>
			display.setColor(WHITE);
    1862:	2f ef       	ldi	r18, 0xFF	; 255
    1864:	4f ef       	ldi	r20, 0xFF	; 255
    1866:	6f ef       	ldi	r22, 0xFF	; 255
    1868:	84 ee       	ldi	r24, 0xE4	; 228
    186a:	90 e0       	ldi	r25, 0x00	; 0
    186c:	0e 94 6e 11 	call	0x22dc	; 0x22dc <_ZN4UTFT8setColorEhhh>
			display.drawLine(MIDDLE_VERTICAL_LINE);
    1870:	0f ee       	ldi	r16, 0xEF	; 239
    1872:	10 e0       	ldi	r17, 0x00	; 0
    1874:	26 e9       	ldi	r18, 0x96	; 150
    1876:	30 e0       	ldi	r19, 0x00	; 0
    1878:	40 e0       	ldi	r20, 0x00	; 0
    187a:	50 e0       	ldi	r21, 0x00	; 0
    187c:	66 e9       	ldi	r22, 0x96	; 150
    187e:	70 e0       	ldi	r23, 0x00	; 0
    1880:	84 ee       	ldi	r24, 0xE4	; 228
    1882:	90 e0       	ldi	r25, 0x00	; 0
    1884:	0e 94 30 12 	call	0x2460	; 0x2460 <_ZN4UTFT8drawLineEiiii>
			display.drawLine(MIDDLE_HORIZONTAL_LINE);
    1888:	08 e7       	ldi	r16, 0x78	; 120
    188a:	10 e0       	ldi	r17, 0x00	; 0
    188c:	2f e3       	ldi	r18, 0x3F	; 63
    188e:	31 e0       	ldi	r19, 0x01	; 1
    1890:	48 e7       	ldi	r20, 0x78	; 120
    1892:	50 e0       	ldi	r21, 0x00	; 0
    1894:	60 e0       	ldi	r22, 0x00	; 0
    1896:	70 e0       	ldi	r23, 0x00	; 0
    1898:	84 ee       	ldi	r24, 0xE4	; 228
    189a:	90 e0       	ldi	r25, 0x00	; 0
    189c:	0e 94 30 12 	call	0x2460	; 0x2460 <_ZN4UTFT8drawLineEiiii>
			
			display.setColor(YELLOW);
    18a0:	20 e0       	ldi	r18, 0x00	; 0
    18a2:	4f ef       	ldi	r20, 0xFF	; 255
    18a4:	6f ef       	ldi	r22, 0xFF	; 255
    18a6:	84 ee       	ldi	r24, 0xE4	; 228
    18a8:	90 e0       	ldi	r25, 0x00	; 0
    18aa:	0e 94 6e 11 	call	0x22dc	; 0x22dc <_ZN4UTFT8setColorEhhh>
			display.fillRect(150, 120, 319, 239);
    18ae:	0f ee       	ldi	r16, 0xEF	; 239
    18b0:	10 e0       	ldi	r17, 0x00	; 0
    18b2:	2f e3       	ldi	r18, 0x3F	; 63
    18b4:	31 e0       	ldi	r19, 0x01	; 1
    18b6:	48 e7       	ldi	r20, 0x78	; 120
    18b8:	50 e0       	ldi	r21, 0x00	; 0
    18ba:	66 e9       	ldi	r22, 0x96	; 150
    18bc:	70 e0       	ldi	r23, 0x00	; 0
    18be:	84 ee       	ldi	r24, 0xE4	; 228
    18c0:	90 e0       	ldi	r25, 0x00	; 0
    18c2:	0e 94 d8 10 	call	0x21b0	; 0x21b0 <_ZN4UTFT8fillRectEiiii>
			display.setColor(WHITE);
    18c6:	2f ef       	ldi	r18, 0xFF	; 255
    18c8:	4f ef       	ldi	r20, 0xFF	; 255
    18ca:	6f ef       	ldi	r22, 0xFF	; 255
    18cc:	84 ee       	ldi	r24, 0xE4	; 228
    18ce:	90 e0       	ldi	r25, 0x00	; 0
    18d0:	0e 94 6e 11 	call	0x22dc	; 0x22dc <_ZN4UTFT8setColorEhhh>
			display.print("Key4", 200, 180);
    18d4:	00 e0       	ldi	r16, 0x00	; 0
    18d6:	10 e0       	ldi	r17, 0x00	; 0
    18d8:	24 eb       	ldi	r18, 0xB4	; 180
    18da:	30 e0       	ldi	r19, 0x00	; 0
    18dc:	48 ec       	ldi	r20, 0xC8	; 200
    18de:	50 e0       	ldi	r21, 0x00	; 0
    18e0:	67 e7       	ldi	r22, 0x77	; 119
    18e2:	70 e0       	ldi	r23, 0x00	; 0
    18e4:	84 ee       	ldi	r24, 0xE4	; 228
    18e6:	90 e0       	ldi	r25, 0x00	; 0
    18e8:	0e 94 0b 16 	call	0x2c16	; 0x2c16 <_ZN4UTFT5printEPKciii>
			
			display.setColor(RED);
    18ec:	20 e0       	ldi	r18, 0x00	; 0
    18ee:	40 e0       	ldi	r20, 0x00	; 0
    18f0:	6f ef       	ldi	r22, 0xFF	; 255
    18f2:	84 ee       	ldi	r24, 0xE4	; 228
    18f4:	90 e0       	ldi	r25, 0x00	; 0
    18f6:	0e 94 6e 11 	call	0x22dc	; 0x22dc <_ZN4UTFT8setColorEhhh>
			display.fillRect(0, 0, 150, 120);
    18fa:	08 e7       	ldi	r16, 0x78	; 120
    18fc:	10 e0       	ldi	r17, 0x00	; 0
    18fe:	26 e9       	ldi	r18, 0x96	; 150
    1900:	30 e0       	ldi	r19, 0x00	; 0
    1902:	40 e0       	ldi	r20, 0x00	; 0
    1904:	50 e0       	ldi	r21, 0x00	; 0
    1906:	60 e0       	ldi	r22, 0x00	; 0
    1908:	70 e0       	ldi	r23, 0x00	; 0
    190a:	84 ee       	ldi	r24, 0xE4	; 228
    190c:	90 e0       	ldi	r25, 0x00	; 0
    190e:	0e 94 d8 10 	call	0x21b0	; 0x21b0 <_ZN4UTFT8fillRectEiiii>
			display.setColor(WHITE);
    1912:	2f ef       	ldi	r18, 0xFF	; 255
    1914:	4f ef       	ldi	r20, 0xFF	; 255
    1916:	6f ef       	ldi	r22, 0xFF	; 255
    1918:	84 ee       	ldi	r24, 0xE4	; 228
    191a:	90 e0       	ldi	r25, 0x00	; 0
    191c:	0e 94 6e 11 	call	0x22dc	; 0x22dc <_ZN4UTFT8setColorEhhh>
			display.print("Key1", 50, 60);
    1920:	00 e0       	ldi	r16, 0x00	; 0
    1922:	10 e0       	ldi	r17, 0x00	; 0
    1924:	2c e3       	ldi	r18, 0x3C	; 60
    1926:	30 e0       	ldi	r19, 0x00	; 0
    1928:	42 e3       	ldi	r20, 0x32	; 50
    192a:	50 e0       	ldi	r21, 0x00	; 0
    192c:	68 e6       	ldi	r22, 0x68	; 104
    192e:	70 e0       	ldi	r23, 0x00	; 0
    1930:	84 ee       	ldi	r24, 0xE4	; 228
    1932:	90 e0       	ldi	r25, 0x00	; 0
    1934:	0e 94 0b 16 	call	0x2c16	; 0x2c16 <_ZN4UTFT5printEPKciii>
			
			
			display.setColor(GREEN);
    1938:	20 e0       	ldi	r18, 0x00	; 0
    193a:	4f ef       	ldi	r20, 0xFF	; 255
    193c:	60 e0       	ldi	r22, 0x00	; 0
    193e:	84 ee       	ldi	r24, 0xE4	; 228
    1940:	90 e0       	ldi	r25, 0x00	; 0
    1942:	0e 94 6e 11 	call	0x22dc	; 0x22dc <_ZN4UTFT8setColorEhhh>
			display.fillRect(0, 120, 150, 239);
    1946:	0f ee       	ldi	r16, 0xEF	; 239
    1948:	10 e0       	ldi	r17, 0x00	; 0
    194a:	26 e9       	ldi	r18, 0x96	; 150
    194c:	30 e0       	ldi	r19, 0x00	; 0
    194e:	48 e7       	ldi	r20, 0x78	; 120
    1950:	50 e0       	ldi	r21, 0x00	; 0
    1952:	60 e0       	ldi	r22, 0x00	; 0
    1954:	70 e0       	ldi	r23, 0x00	; 0
    1956:	84 ee       	ldi	r24, 0xE4	; 228
    1958:	90 e0       	ldi	r25, 0x00	; 0
    195a:	0e 94 d8 10 	call	0x21b0	; 0x21b0 <_ZN4UTFT8fillRectEiiii>
			display.setColor(WHITE);
    195e:	2f ef       	ldi	r18, 0xFF	; 255
    1960:	4f ef       	ldi	r20, 0xFF	; 255
    1962:	6f ef       	ldi	r22, 0xFF	; 255
    1964:	84 ee       	ldi	r24, 0xE4	; 228
    1966:	90 e0       	ldi	r25, 0x00	; 0
    1968:	0e 94 6e 11 	call	0x22dc	; 0x22dc <_ZN4UTFT8setColorEhhh>
			display.print("Key3", 50, 180);
    196c:	00 e0       	ldi	r16, 0x00	; 0
    196e:	10 e0       	ldi	r17, 0x00	; 0
    1970:	24 eb       	ldi	r18, 0xB4	; 180
    1972:	30 e0       	ldi	r19, 0x00	; 0
    1974:	42 e3       	ldi	r20, 0x32	; 50
    1976:	50 e0       	ldi	r21, 0x00	; 0
    1978:	6d e6       	ldi	r22, 0x6D	; 109
    197a:	70 e0       	ldi	r23, 0x00	; 0
    197c:	84 ee       	ldi	r24, 0xE4	; 228
    197e:	90 e0       	ldi	r25, 0x00	; 0
    1980:	0e 94 0b 16 	call	0x2c16	; 0x2c16 <_ZN4UTFT5printEPKciii>
			
			
			display.setColor(BLUE);
    1984:	2c ec       	ldi	r18, 0xCC	; 204
    1986:	40 e0       	ldi	r20, 0x00	; 0
    1988:	60 e0       	ldi	r22, 0x00	; 0
    198a:	84 ee       	ldi	r24, 0xE4	; 228
    198c:	90 e0       	ldi	r25, 0x00	; 0
    198e:	0e 94 6e 11 	call	0x22dc	; 0x22dc <_ZN4UTFT8setColorEhhh>
			display.fillRect(150, 0, 319, 120);
    1992:	08 e7       	ldi	r16, 0x78	; 120
    1994:	10 e0       	ldi	r17, 0x00	; 0
    1996:	2f e3       	ldi	r18, 0x3F	; 63
    1998:	31 e0       	ldi	r19, 0x01	; 1
    199a:	40 e0       	ldi	r20, 0x00	; 0
    199c:	50 e0       	ldi	r21, 0x00	; 0
    199e:	66 e9       	ldi	r22, 0x96	; 150
    19a0:	70 e0       	ldi	r23, 0x00	; 0
    19a2:	84 ee       	ldi	r24, 0xE4	; 228
    19a4:	90 e0       	ldi	r25, 0x00	; 0
    19a6:	0e 94 d8 10 	call	0x21b0	; 0x21b0 <_ZN4UTFT8fillRectEiiii>
			display.setColor(WHITE);
    19aa:	2f ef       	ldi	r18, 0xFF	; 255
    19ac:	4f ef       	ldi	r20, 0xFF	; 255
    19ae:	6f ef       	ldi	r22, 0xFF	; 255
    19b0:	84 ee       	ldi	r24, 0xE4	; 228
    19b2:	90 e0       	ldi	r25, 0x00	; 0
    19b4:	0e 94 6e 11 	call	0x22dc	; 0x22dc <_ZN4UTFT8setColorEhhh>
			display.print("Key2", 200, 60);
    19b8:	00 e0       	ldi	r16, 0x00	; 0
    19ba:	10 e0       	ldi	r17, 0x00	; 0
    19bc:	2c e3       	ldi	r18, 0x3C	; 60
    19be:	30 e0       	ldi	r19, 0x00	; 0
    19c0:	48 ec       	ldi	r20, 0xC8	; 200
    19c2:	50 e0       	ldi	r21, 0x00	; 0
    19c4:	62 e7       	ldi	r22, 0x72	; 114
    19c6:	70 e0       	ldi	r23, 0x00	; 0
    19c8:	84 ee       	ldi	r24, 0xE4	; 228
    19ca:	90 e0       	ldi	r25, 0x00	; 0
    19cc:	0e 94 0b 16 	call	0x2c16	; 0x2c16 <_ZN4UTFT5printEPKciii>
    19d0:	2f ef       	ldi	r18, 0xFF	; 255
    19d2:	8f e3       	ldi	r24, 0x3F	; 63
    19d4:	9b e0       	ldi	r25, 0x0B	; 11
    19d6:	21 50       	subi	r18, 0x01	; 1
    19d8:	80 40       	sbci	r24, 0x00	; 0
    19da:	90 40       	sbci	r25, 0x00	; 0
    19dc:	e1 f7       	brne	.-8      	; 0x19d6 <_ZN5Simon9flashRectEv+0x52c>
    19de:	00 c0       	rjmp	.+0      	; 0x19e0 <_ZN5Simon9flashRectEv+0x536>
    19e0:	00 00       	nop
			_delay_ms(500);
			display.setColor(BLUE);
    19e2:	2c ec       	ldi	r18, 0xCC	; 204
    19e4:	40 e0       	ldi	r20, 0x00	; 0
    19e6:	60 e0       	ldi	r22, 0x00	; 0
    19e8:	84 ee       	ldi	r24, 0xE4	; 228
    19ea:	90 e0       	ldi	r25, 0x00	; 0
    19ec:	0e 94 6e 11 	call	0x22dc	; 0x22dc <_ZN4UTFT8setColorEhhh>
			display.fillRect(150, 0, 319, 120);
    19f0:	08 e7       	ldi	r16, 0x78	; 120
    19f2:	10 e0       	ldi	r17, 0x00	; 0
    19f4:	2f e3       	ldi	r18, 0x3F	; 63
    19f6:	31 e0       	ldi	r19, 0x01	; 1
    19f8:	40 e0       	ldi	r20, 0x00	; 0
    19fa:	50 e0       	ldi	r21, 0x00	; 0
    19fc:	66 e9       	ldi	r22, 0x96	; 150
    19fe:	70 e0       	ldi	r23, 0x00	; 0
    1a00:	84 ee       	ldi	r24, 0xE4	; 228
    1a02:	90 e0       	ldi	r25, 0x00	; 0
    1a04:	0e 94 d8 10 	call	0x21b0	; 0x21b0 <_ZN4UTFT8fillRectEiiii>
    1a08:	2f ef       	ldi	r18, 0xFF	; 255
    1a0a:	8f e3       	ldi	r24, 0x3F	; 63
    1a0c:	9b e0       	ldi	r25, 0x0B	; 11
    1a0e:	21 50       	subi	r18, 0x01	; 1
    1a10:	80 40       	sbci	r24, 0x00	; 0
    1a12:	90 40       	sbci	r25, 0x00	; 0
    1a14:	e1 f7       	brne	.-8      	; 0x1a0e <_ZN5Simon9flashRectEv+0x564>
    1a16:	00 c0       	rjmp	.+0      	; 0x1a18 <_ZN5Simon9flashRectEv+0x56e>
    1a18:	00 00       	nop
			_delay_ms(500);
		}
		if(rect == 4){
    1a1a:	88 81       	ld	r24, Y
    1a1c:	99 81       	ldd	r25, Y+1	; 0x01
    1a1e:	04 97       	sbiw	r24, 0x04	; 4
    1a20:	09 f0       	breq	.+2      	; 0x1a24 <_ZN5Simon9flashRectEv+0x57a>
    1a22:	e0 c0       	rjmp	.+448    	; 0x1be4 <_ZN5Simon9flashRectEv+0x73a>
			display.setFont(BigFont);
    1a24:	62 e7       	ldi	r22, 0x72	; 114
    1a26:	70 e0       	ldi	r23, 0x00	; 0
    1a28:	84 ee       	ldi	r24, 0xE4	; 228
    1a2a:	90 e0       	ldi	r25, 0x00	; 0
    1a2c:	0e 94 e6 16 	call	0x2dcc	; 0x2dcc <_ZN4UTFT7setFontEPKh>
			display.setColor(WHITE);
    1a30:	2f ef       	ldi	r18, 0xFF	; 255
    1a32:	4f ef       	ldi	r20, 0xFF	; 255
    1a34:	6f ef       	ldi	r22, 0xFF	; 255
    1a36:	84 ee       	ldi	r24, 0xE4	; 228
    1a38:	90 e0       	ldi	r25, 0x00	; 0
    1a3a:	0e 94 6e 11 	call	0x22dc	; 0x22dc <_ZN4UTFT8setColorEhhh>
			display.drawLine(MIDDLE_VERTICAL_LINE);
    1a3e:	0f ee       	ldi	r16, 0xEF	; 239
    1a40:	10 e0       	ldi	r17, 0x00	; 0
    1a42:	26 e9       	ldi	r18, 0x96	; 150
    1a44:	30 e0       	ldi	r19, 0x00	; 0
    1a46:	40 e0       	ldi	r20, 0x00	; 0
    1a48:	50 e0       	ldi	r21, 0x00	; 0
    1a4a:	66 e9       	ldi	r22, 0x96	; 150
    1a4c:	70 e0       	ldi	r23, 0x00	; 0
    1a4e:	84 ee       	ldi	r24, 0xE4	; 228
    1a50:	90 e0       	ldi	r25, 0x00	; 0
    1a52:	0e 94 30 12 	call	0x2460	; 0x2460 <_ZN4UTFT8drawLineEiiii>
			display.drawLine(MIDDLE_HORIZONTAL_LINE);
    1a56:	08 e7       	ldi	r16, 0x78	; 120
    1a58:	10 e0       	ldi	r17, 0x00	; 0
    1a5a:	2f e3       	ldi	r18, 0x3F	; 63
    1a5c:	31 e0       	ldi	r19, 0x01	; 1
    1a5e:	48 e7       	ldi	r20, 0x78	; 120
    1a60:	50 e0       	ldi	r21, 0x00	; 0
    1a62:	60 e0       	ldi	r22, 0x00	; 0
    1a64:	70 e0       	ldi	r23, 0x00	; 0
    1a66:	84 ee       	ldi	r24, 0xE4	; 228
    1a68:	90 e0       	ldi	r25, 0x00	; 0
    1a6a:	0e 94 30 12 	call	0x2460	; 0x2460 <_ZN4UTFT8drawLineEiiii>
			
			display.setColor(RED);
    1a6e:	20 e0       	ldi	r18, 0x00	; 0
    1a70:	40 e0       	ldi	r20, 0x00	; 0
    1a72:	6f ef       	ldi	r22, 0xFF	; 255
    1a74:	84 ee       	ldi	r24, 0xE4	; 228
    1a76:	90 e0       	ldi	r25, 0x00	; 0
    1a78:	0e 94 6e 11 	call	0x22dc	; 0x22dc <_ZN4UTFT8setColorEhhh>
			display.fillRect(0, 0, 150, 120);
    1a7c:	26 e9       	ldi	r18, 0x96	; 150
    1a7e:	30 e0       	ldi	r19, 0x00	; 0
    1a80:	40 e0       	ldi	r20, 0x00	; 0
    1a82:	50 e0       	ldi	r21, 0x00	; 0
    1a84:	60 e0       	ldi	r22, 0x00	; 0
    1a86:	70 e0       	ldi	r23, 0x00	; 0
    1a88:	84 ee       	ldi	r24, 0xE4	; 228
    1a8a:	90 e0       	ldi	r25, 0x00	; 0
    1a8c:	0e 94 d8 10 	call	0x21b0	; 0x21b0 <_ZN4UTFT8fillRectEiiii>
			display.setColor(WHITE);
    1a90:	2f ef       	ldi	r18, 0xFF	; 255
    1a92:	4f ef       	ldi	r20, 0xFF	; 255
    1a94:	6f ef       	ldi	r22, 0xFF	; 255
    1a96:	84 ee       	ldi	r24, 0xE4	; 228
    1a98:	90 e0       	ldi	r25, 0x00	; 0
    1a9a:	0e 94 6e 11 	call	0x22dc	; 0x22dc <_ZN4UTFT8setColorEhhh>
			display.print("Key1", 50, 60);
    1a9e:	00 e0       	ldi	r16, 0x00	; 0
    1aa0:	10 e0       	ldi	r17, 0x00	; 0
    1aa2:	2c e3       	ldi	r18, 0x3C	; 60
    1aa4:	30 e0       	ldi	r19, 0x00	; 0
    1aa6:	42 e3       	ldi	r20, 0x32	; 50
    1aa8:	50 e0       	ldi	r21, 0x00	; 0
    1aaa:	68 e6       	ldi	r22, 0x68	; 104
    1aac:	70 e0       	ldi	r23, 0x00	; 0
    1aae:	84 ee       	ldi	r24, 0xE4	; 228
    1ab0:	90 e0       	ldi	r25, 0x00	; 0
    1ab2:	0e 94 0b 16 	call	0x2c16	; 0x2c16 <_ZN4UTFT5printEPKciii>
			
			
			display.setColor(GREEN);
    1ab6:	20 e0       	ldi	r18, 0x00	; 0
    1ab8:	4f ef       	ldi	r20, 0xFF	; 255
    1aba:	60 e0       	ldi	r22, 0x00	; 0
    1abc:	84 ee       	ldi	r24, 0xE4	; 228
    1abe:	90 e0       	ldi	r25, 0x00	; 0
    1ac0:	0e 94 6e 11 	call	0x22dc	; 0x22dc <_ZN4UTFT8setColorEhhh>
			display.fillRect(0, 120, 150, 239);
    1ac4:	0f ee       	ldi	r16, 0xEF	; 239
    1ac6:	10 e0       	ldi	r17, 0x00	; 0
    1ac8:	26 e9       	ldi	r18, 0x96	; 150
    1aca:	30 e0       	ldi	r19, 0x00	; 0
    1acc:	48 e7       	ldi	r20, 0x78	; 120
    1ace:	50 e0       	ldi	r21, 0x00	; 0
    1ad0:	60 e0       	ldi	r22, 0x00	; 0
    1ad2:	70 e0       	ldi	r23, 0x00	; 0
    1ad4:	84 ee       	ldi	r24, 0xE4	; 228
    1ad6:	90 e0       	ldi	r25, 0x00	; 0
    1ad8:	0e 94 d8 10 	call	0x21b0	; 0x21b0 <_ZN4UTFT8fillRectEiiii>
			display.setColor(WHITE);
    1adc:	2f ef       	ldi	r18, 0xFF	; 255
    1ade:	4f ef       	ldi	r20, 0xFF	; 255
    1ae0:	6f ef       	ldi	r22, 0xFF	; 255
    1ae2:	84 ee       	ldi	r24, 0xE4	; 228
    1ae4:	90 e0       	ldi	r25, 0x00	; 0
    1ae6:	0e 94 6e 11 	call	0x22dc	; 0x22dc <_ZN4UTFT8setColorEhhh>
			display.print("Key3", 50, 180);
    1aea:	00 e0       	ldi	r16, 0x00	; 0
    1aec:	10 e0       	ldi	r17, 0x00	; 0
    1aee:	24 eb       	ldi	r18, 0xB4	; 180
    1af0:	30 e0       	ldi	r19, 0x00	; 0
    1af2:	42 e3       	ldi	r20, 0x32	; 50
    1af4:	50 e0       	ldi	r21, 0x00	; 0
    1af6:	6d e6       	ldi	r22, 0x6D	; 109
    1af8:	70 e0       	ldi	r23, 0x00	; 0
    1afa:	84 ee       	ldi	r24, 0xE4	; 228
    1afc:	90 e0       	ldi	r25, 0x00	; 0
    1afe:	0e 94 0b 16 	call	0x2c16	; 0x2c16 <_ZN4UTFT5printEPKciii>
			
			
			display.setColor(BLUE);
    1b02:	2c ec       	ldi	r18, 0xCC	; 204
    1b04:	40 e0       	ldi	r20, 0x00	; 0
    1b06:	60 e0       	ldi	r22, 0x00	; 0
    1b08:	84 ee       	ldi	r24, 0xE4	; 228
    1b0a:	90 e0       	ldi	r25, 0x00	; 0
    1b0c:	0e 94 6e 11 	call	0x22dc	; 0x22dc <_ZN4UTFT8setColorEhhh>
			display.fillRect(150, 0, 319, 120);
    1b10:	08 e7       	ldi	r16, 0x78	; 120
    1b12:	10 e0       	ldi	r17, 0x00	; 0
    1b14:	2f e3       	ldi	r18, 0x3F	; 63
    1b16:	31 e0       	ldi	r19, 0x01	; 1
    1b18:	40 e0       	ldi	r20, 0x00	; 0
    1b1a:	50 e0       	ldi	r21, 0x00	; 0
    1b1c:	66 e9       	ldi	r22, 0x96	; 150
    1b1e:	70 e0       	ldi	r23, 0x00	; 0
    1b20:	84 ee       	ldi	r24, 0xE4	; 228
    1b22:	90 e0       	ldi	r25, 0x00	; 0
    1b24:	0e 94 d8 10 	call	0x21b0	; 0x21b0 <_ZN4UTFT8fillRectEiiii>
			display.setColor(WHITE);
    1b28:	2f ef       	ldi	r18, 0xFF	; 255
    1b2a:	4f ef       	ldi	r20, 0xFF	; 255
    1b2c:	6f ef       	ldi	r22, 0xFF	; 255
    1b2e:	84 ee       	ldi	r24, 0xE4	; 228
    1b30:	90 e0       	ldi	r25, 0x00	; 0
    1b32:	0e 94 6e 11 	call	0x22dc	; 0x22dc <_ZN4UTFT8setColorEhhh>
			display.print("Key2", 200, 60);
    1b36:	00 e0       	ldi	r16, 0x00	; 0
    1b38:	10 e0       	ldi	r17, 0x00	; 0
    1b3a:	2c e3       	ldi	r18, 0x3C	; 60
    1b3c:	30 e0       	ldi	r19, 0x00	; 0
    1b3e:	48 ec       	ldi	r20, 0xC8	; 200
    1b40:	50 e0       	ldi	r21, 0x00	; 0
    1b42:	62 e7       	ldi	r22, 0x72	; 114
    1b44:	70 e0       	ldi	r23, 0x00	; 0
    1b46:	84 ee       	ldi	r24, 0xE4	; 228
    1b48:	90 e0       	ldi	r25, 0x00	; 0
    1b4a:	0e 94 0b 16 	call	0x2c16	; 0x2c16 <_ZN4UTFT5printEPKciii>
			
			display.setColor(YELLOW);
    1b4e:	20 e0       	ldi	r18, 0x00	; 0
    1b50:	4f ef       	ldi	r20, 0xFF	; 255
    1b52:	6f ef       	ldi	r22, 0xFF	; 255
    1b54:	84 ee       	ldi	r24, 0xE4	; 228
    1b56:	90 e0       	ldi	r25, 0x00	; 0
    1b58:	0e 94 6e 11 	call	0x22dc	; 0x22dc <_ZN4UTFT8setColorEhhh>
			display.fillRect(150, 120, 319, 239);
    1b5c:	0f ee       	ldi	r16, 0xEF	; 239
    1b5e:	10 e0       	ldi	r17, 0x00	; 0
    1b60:	2f e3       	ldi	r18, 0x3F	; 63
    1b62:	31 e0       	ldi	r19, 0x01	; 1
    1b64:	48 e7       	ldi	r20, 0x78	; 120
    1b66:	50 e0       	ldi	r21, 0x00	; 0
    1b68:	66 e9       	ldi	r22, 0x96	; 150
    1b6a:	70 e0       	ldi	r23, 0x00	; 0
    1b6c:	84 ee       	ldi	r24, 0xE4	; 228
    1b6e:	90 e0       	ldi	r25, 0x00	; 0
    1b70:	0e 94 d8 10 	call	0x21b0	; 0x21b0 <_ZN4UTFT8fillRectEiiii>
			display.setColor(WHITE);
    1b74:	2f ef       	ldi	r18, 0xFF	; 255
    1b76:	4f ef       	ldi	r20, 0xFF	; 255
    1b78:	6f ef       	ldi	r22, 0xFF	; 255
    1b7a:	84 ee       	ldi	r24, 0xE4	; 228
    1b7c:	90 e0       	ldi	r25, 0x00	; 0
    1b7e:	0e 94 6e 11 	call	0x22dc	; 0x22dc <_ZN4UTFT8setColorEhhh>
			display.print("Key4", 200, 180);
    1b82:	00 e0       	ldi	r16, 0x00	; 0
    1b84:	10 e0       	ldi	r17, 0x00	; 0
    1b86:	24 eb       	ldi	r18, 0xB4	; 180
    1b88:	30 e0       	ldi	r19, 0x00	; 0
    1b8a:	48 ec       	ldi	r20, 0xC8	; 200
    1b8c:	50 e0       	ldi	r21, 0x00	; 0
    1b8e:	67 e7       	ldi	r22, 0x77	; 119
    1b90:	70 e0       	ldi	r23, 0x00	; 0
    1b92:	84 ee       	ldi	r24, 0xE4	; 228
    1b94:	90 e0       	ldi	r25, 0x00	; 0
    1b96:	0e 94 0b 16 	call	0x2c16	; 0x2c16 <_ZN4UTFT5printEPKciii>
    1b9a:	2f ef       	ldi	r18, 0xFF	; 255
    1b9c:	8f e3       	ldi	r24, 0x3F	; 63
    1b9e:	9b e0       	ldi	r25, 0x0B	; 11
    1ba0:	21 50       	subi	r18, 0x01	; 1
    1ba2:	80 40       	sbci	r24, 0x00	; 0
    1ba4:	90 40       	sbci	r25, 0x00	; 0
    1ba6:	e1 f7       	brne	.-8      	; 0x1ba0 <_ZN5Simon9flashRectEv+0x6f6>
    1ba8:	00 c0       	rjmp	.+0      	; 0x1baa <_ZN5Simon9flashRectEv+0x700>
    1baa:	00 00       	nop
			_delay_ms(500);
			display.setColor(YELLOW);
    1bac:	20 e0       	ldi	r18, 0x00	; 0
    1bae:	4f ef       	ldi	r20, 0xFF	; 255
    1bb0:	6f ef       	ldi	r22, 0xFF	; 255
    1bb2:	84 ee       	ldi	r24, 0xE4	; 228
    1bb4:	90 e0       	ldi	r25, 0x00	; 0
    1bb6:	0e 94 6e 11 	call	0x22dc	; 0x22dc <_ZN4UTFT8setColorEhhh>
			display.fillRect(150, 120, 319, 239);
    1bba:	0f ee       	ldi	r16, 0xEF	; 239
    1bbc:	10 e0       	ldi	r17, 0x00	; 0
    1bbe:	2f e3       	ldi	r18, 0x3F	; 63
    1bc0:	31 e0       	ldi	r19, 0x01	; 1
    1bc2:	48 e7       	ldi	r20, 0x78	; 120
    1bc4:	50 e0       	ldi	r21, 0x00	; 0
    1bc6:	66 e9       	ldi	r22, 0x96	; 150
    1bc8:	70 e0       	ldi	r23, 0x00	; 0
    1bca:	84 ee       	ldi	r24, 0xE4	; 228
    1bcc:	90 e0       	ldi	r25, 0x00	; 0
    1bce:	0e 94 d8 10 	call	0x21b0	; 0x21b0 <_ZN4UTFT8fillRectEiiii>
    1bd2:	2f ef       	ldi	r18, 0xFF	; 255
    1bd4:	8f e3       	ldi	r24, 0x3F	; 63
    1bd6:	9b e0       	ldi	r25, 0x0B	; 11
    1bd8:	21 50       	subi	r18, 0x01	; 1
    1bda:	80 40       	sbci	r24, 0x00	; 0
    1bdc:	90 40       	sbci	r25, 0x00	; 0
    1bde:	e1 f7       	brne	.-8      	; 0x1bd8 <_ZN5Simon9flashRectEv+0x72e>
    1be0:	00 c0       	rjmp	.+0      	; 0x1be2 <_ZN5Simon9flashRectEv+0x738>
    1be2:	00 00       	nop
			_delay_ms(500);
		}
	}
    1be4:	df 91       	pop	r29
    1be6:	cf 91       	pop	r28
    1be8:	1f 91       	pop	r17
    1bea:	0f 91       	pop	r16
    1bec:	08 95       	ret

00001bee <main>:

int main(void)
{
	
	//SET PORTS
	PORTB = 0xff;
    1bee:	8f ef       	ldi	r24, 0xFF	; 255
    1bf0:	88 bb       	out	0x18, r24	; 24
	DDRB = 0x00;
    1bf2:	17 ba       	out	0x17, r1	; 23
	
	//LCD INIT
	display.clrScr();
    1bf4:	84 ee       	ldi	r24, 0xE4	; 228
    1bf6:	90 e0       	ldi	r25, 0x00	; 0
    1bf8:	0e 94 38 11 	call	0x2270	; 0x2270 <_ZN4UTFT6clrScrEv>
	display.InitLCD(LANDSCAPE);
    1bfc:	61 e0       	ldi	r22, 0x01	; 1
    1bfe:	84 ee       	ldi	r24, 0xE4	; 228
    1c00:	90 e0       	ldi	r25, 0x00	; 0
    1c02:	0e 94 b6 11 	call	0x236c	; 0x236c <_ZN4UTFT7InitLCDEh>

	
	//fill simonArray with random numbers from 1-4
	for(int i = 0; i < 20; i++){
    1c06:	c0 e0       	ldi	r28, 0x00	; 0
    1c08:	d0 e0       	ldi	r29, 0x00	; 0
    1c0a:	c4 31       	cpi	r28, 0x14	; 20
    1c0c:	d1 05       	cpc	r29, r1
    1c0e:	d4 f4       	brge	.+52     	; 0x1c44 <main+0x56>
		int randomValue = rand() % 4 + 1;
    1c10:	0e 94 da 19 	call	0x33b4	; 0x33b4 <rand>
    1c14:	83 70       	andi	r24, 0x03	; 3
    1c16:	90 78       	andi	r25, 0x80	; 128
    1c18:	99 23       	and	r25, r25
    1c1a:	24 f4       	brge	.+8      	; 0x1c24 <main+0x36>
    1c1c:	01 97       	sbiw	r24, 0x01	; 1
    1c1e:	8c 6f       	ori	r24, 0xFC	; 252
    1c20:	9f 6f       	ori	r25, 0xFF	; 255
    1c22:	01 96       	adiw	r24, 0x01	; 1
    1c24:	01 96       	adiw	r24, 0x01	; 1
		simonArray[i] = Simon(randomValue);
    1c26:	9e 01       	movw	r18, r28
    1c28:	22 0f       	add	r18, r18
    1c2a:	33 1f       	adc	r19, r19
    1c2c:	f9 01       	movw	r30, r18
    1c2e:	e4 54       	subi	r30, 0x44	; 68
    1c30:	ff 4f       	sbci	r31, 0xFF	; 255
    1c32:	91 83       	std	Z+1, r25	; 0x01
    1c34:	80 83       	st	Z, r24
		correctAnswer[i] = randomValue;
    1c36:	f9 01       	movw	r30, r18
    1c38:	ee 56       	subi	r30, 0x6E	; 110
    1c3a:	ff 4f       	sbci	r31, 0xFF	; 255
    1c3c:	91 83       	std	Z+1, r25	; 0x01
    1c3e:	80 83       	st	Z, r24
	display.clrScr();
	display.InitLCD(LANDSCAPE);

	
	//fill simonArray with random numbers from 1-4
	for(int i = 0; i < 20; i++){
    1c40:	21 96       	adiw	r28, 0x01	; 1
    1c42:	e3 cf       	rjmp	.-58     	; 0x1c0a <main+0x1c>
		correctAnswer[i] = randomValue;
	}

	while (1)
	{
		if(error == 1){
    1c44:	80 91 90 00 	lds	r24, 0x0090	; 0x800090 <error>
    1c48:	90 91 91 00 	lds	r25, 0x0091	; 0x800091 <error+0x1>
    1c4c:	01 97       	sbiw	r24, 0x01	; 1
    1c4e:	f1 f4       	brne	.+60     	; 0x1c8c <main+0x9e>
			display.clrScr();
    1c50:	84 ee       	ldi	r24, 0xE4	; 228
    1c52:	90 e0       	ldi	r25, 0x00	; 0
    1c54:	0e 94 38 11 	call	0x2270	; 0x2270 <_ZN4UTFT6clrScrEv>
			display.setColor(RED);
    1c58:	20 e0       	ldi	r18, 0x00	; 0
    1c5a:	40 e0       	ldi	r20, 0x00	; 0
    1c5c:	6f ef       	ldi	r22, 0xFF	; 255
    1c5e:	84 ee       	ldi	r24, 0xE4	; 228
    1c60:	90 e0       	ldi	r25, 0x00	; 0
    1c62:	0e 94 6e 11 	call	0x22dc	; 0x22dc <_ZN4UTFT8setColorEhhh>
			display.setFont(BigFont);
    1c66:	62 e7       	ldi	r22, 0x72	; 114
    1c68:	70 e0       	ldi	r23, 0x00	; 0
    1c6a:	84 ee       	ldi	r24, 0xE4	; 228
    1c6c:	90 e0       	ldi	r25, 0x00	; 0
    1c6e:	0e 94 e6 16 	call	0x2dcc	; 0x2dcc <_ZN4UTFT7setFontEPKh>
			display.print("GAME OVER", CENTER, 110);
    1c72:	00 e0       	ldi	r16, 0x00	; 0
    1c74:	10 e0       	ldi	r17, 0x00	; 0
    1c76:	2e e6       	ldi	r18, 0x6E	; 110
    1c78:	30 e0       	ldi	r19, 0x00	; 0
    1c7a:	4e e0       	ldi	r20, 0x0E	; 14
    1c7c:	57 e2       	ldi	r21, 0x27	; 39
    1c7e:	6c e7       	ldi	r22, 0x7C	; 124
    1c80:	70 e0       	ldi	r23, 0x00	; 0
    1c82:	84 ee       	ldi	r24, 0xE4	; 228
    1c84:	90 e0       	ldi	r25, 0x00	; 0
    1c86:	0e 94 0b 16 	call	0x2c16	; 0x2c16 <_ZN4UTFT5printEPKciii>
    1c8a:	ff cf       	rjmp	.-2      	; 0x1c8a <main+0x9c>
			while(1);
		}
		else{
			if(turnCPU == 1){
    1c8c:	80 91 66 00 	lds	r24, 0x0066	; 0x800066 <turnCPU>
    1c90:	90 91 67 00 	lds	r25, 0x0067	; 0x800067 <turnCPU+0x1>
    1c94:	01 97       	sbiw	r24, 0x01	; 1
    1c96:	e1 f4       	brne	.+56     	; 0x1cd0 <main+0xe2>
    1c98:	c0 e0       	ldi	r28, 0x00	; 0
    1c9a:	d0 e0       	ldi	r29, 0x00	; 0
				for (int i = 0; i < numberOfSimons; i++)
    1c9c:	80 91 64 00 	lds	r24, 0x0064	; 0x800064 <numberOfSimons>
    1ca0:	90 91 65 00 	lds	r25, 0x0065	; 0x800065 <numberOfSimons+0x1>
    1ca4:	c8 17       	cp	r28, r24
    1ca6:	d9 07       	cpc	r29, r25
    1ca8:	4c f4       	brge	.+18     	; 0x1cbc <main+0xce>
				{
					simonArray[i].flashRect();
    1caa:	ce 01       	movw	r24, r28
    1cac:	88 0f       	add	r24, r24
    1cae:	99 1f       	adc	r25, r25
    1cb0:	84 54       	subi	r24, 0x44	; 68
    1cb2:	9f 4f       	sbci	r25, 0xFF	; 255
    1cb4:	0e 94 55 0a 	call	0x14aa	; 0x14aa <_ZN5Simon9flashRectEv>
			display.print("GAME OVER", CENTER, 110);
			while(1);
		}
		else{
			if(turnCPU == 1){
				for (int i = 0; i < numberOfSimons; i++)
    1cb8:	21 96       	adiw	r28, 0x01	; 1
    1cba:	f0 cf       	rjmp	.-32     	; 0x1c9c <main+0xae>
				{
					simonArray[i].flashRect();
				}
				turnPlayer = 1;
    1cbc:	81 e0       	ldi	r24, 0x01	; 1
    1cbe:	90 e0       	ldi	r25, 0x00	; 0
    1cc0:	90 93 bb 00 	sts	0x00BB, r25	; 0x8000bb <turnPlayer+0x1>
    1cc4:	80 93 ba 00 	sts	0x00BA, r24	; 0x8000ba <turnPlayer>
				turnCPU = 0;
    1cc8:	10 92 67 00 	sts	0x0067, r1	; 0x800067 <turnCPU+0x1>
    1ccc:	10 92 66 00 	sts	0x0066, r1	; 0x800066 <turnCPU>
			}
			drawLine();
    1cd0:	0e 94 95 09 	call	0x132a	; 0x132a <_Z8drawLinev>
			if((PINB & (1 << PB0)) == 0){
    1cd4:	b0 99       	sbic	0x16, 0	; 22
    1cd6:	36 c0       	rjmp	.+108    	; 0x1d44 <main+0x156>
				int x = 1;
				if(correctAnswer[countAnswer] == x){
    1cd8:	80 91 8e 00 	lds	r24, 0x008E	; 0x80008e <__data_end>
    1cdc:	90 91 8f 00 	lds	r25, 0x008F	; 0x80008f <__data_end+0x1>
    1ce0:	fc 01       	movw	r30, r24
    1ce2:	ee 0f       	add	r30, r30
    1ce4:	ff 1f       	adc	r31, r31
    1ce6:	ee 56       	subi	r30, 0x6E	; 110
    1ce8:	ff 4f       	sbci	r31, 0xFF	; 255
    1cea:	20 81       	ld	r18, Z
    1cec:	31 81       	ldd	r19, Z+1	; 0x01
    1cee:	21 30       	cpi	r18, 0x01	; 1
    1cf0:	31 05       	cpc	r19, r1
    1cf2:	c9 f4       	brne	.+50     	; 0x1d26 <main+0x138>
					countAnswer++;
    1cf4:	01 96       	adiw	r24, 0x01	; 1
    1cf6:	90 93 8f 00 	sts	0x008F, r25	; 0x80008f <__data_end+0x1>
    1cfa:	80 93 8e 00 	sts	0x008E, r24	; 0x80008e <__data_end>
					display.setColor(WHITE);
    1cfe:	2f ef       	ldi	r18, 0xFF	; 255
    1d00:	4f ef       	ldi	r20, 0xFF	; 255
    1d02:	6f ef       	ldi	r22, 0xFF	; 255
    1d04:	84 ee       	ldi	r24, 0xE4	; 228
    1d06:	90 e0       	ldi	r25, 0x00	; 0
    1d08:	0e 94 6e 11 	call	0x22dc	; 0x22dc <_ZN4UTFT8setColorEhhh>
					display.print("CORRECT", CENTER, 110);
    1d0c:	00 e0       	ldi	r16, 0x00	; 0
    1d0e:	10 e0       	ldi	r17, 0x00	; 0
    1d10:	2e e6       	ldi	r18, 0x6E	; 110
    1d12:	30 e0       	ldi	r19, 0x00	; 0
    1d14:	4e e0       	ldi	r20, 0x0E	; 14
    1d16:	57 e2       	ldi	r21, 0x27	; 39
    1d18:	66 e8       	ldi	r22, 0x86	; 134
    1d1a:	70 e0       	ldi	r23, 0x00	; 0
    1d1c:	84 ee       	ldi	r24, 0xE4	; 228
    1d1e:	90 e0       	ldi	r25, 0x00	; 0
    1d20:	0e 94 0b 16 	call	0x2c16	; 0x2c16 <_ZN4UTFT5printEPKciii>
    1d24:	06 c0       	rjmp	.+12     	; 0x1d32 <main+0x144>
				}else{
					error = 1;
    1d26:	81 e0       	ldi	r24, 0x01	; 1
    1d28:	90 e0       	ldi	r25, 0x00	; 0
    1d2a:	90 93 91 00 	sts	0x0091, r25	; 0x800091 <error+0x1>
    1d2e:	80 93 90 00 	sts	0x0090, r24	; 0x800090 <error>
    1d32:	2f ef       	ldi	r18, 0xFF	; 255
    1d34:	8f e3       	ldi	r24, 0x3F	; 63
    1d36:	9b e0       	ldi	r25, 0x0B	; 11
    1d38:	21 50       	subi	r18, 0x01	; 1
    1d3a:	80 40       	sbci	r24, 0x00	; 0
    1d3c:	90 40       	sbci	r25, 0x00	; 0
    1d3e:	e1 f7       	brne	.-8      	; 0x1d38 <main+0x14a>
    1d40:	00 c0       	rjmp	.+0      	; 0x1d42 <main+0x154>
    1d42:	00 00       	nop
				}
				_delay_ms(500);
			}
			if((PINB & (1 << PB1)) == 0){
    1d44:	b1 99       	sbic	0x16, 1	; 22
    1d46:	36 c0       	rjmp	.+108    	; 0x1db4 <main+0x1c6>
				int x = 2;
				if(correctAnswer[countAnswer] == x){
    1d48:	80 91 8e 00 	lds	r24, 0x008E	; 0x80008e <__data_end>
    1d4c:	90 91 8f 00 	lds	r25, 0x008F	; 0x80008f <__data_end+0x1>
    1d50:	fc 01       	movw	r30, r24
    1d52:	ee 0f       	add	r30, r30
    1d54:	ff 1f       	adc	r31, r31
    1d56:	ee 56       	subi	r30, 0x6E	; 110
    1d58:	ff 4f       	sbci	r31, 0xFF	; 255
    1d5a:	20 81       	ld	r18, Z
    1d5c:	31 81       	ldd	r19, Z+1	; 0x01
    1d5e:	22 30       	cpi	r18, 0x02	; 2
    1d60:	31 05       	cpc	r19, r1
    1d62:	c9 f4       	brne	.+50     	; 0x1d96 <main+0x1a8>
					countAnswer++;
    1d64:	01 96       	adiw	r24, 0x01	; 1
    1d66:	90 93 8f 00 	sts	0x008F, r25	; 0x80008f <__data_end+0x1>
    1d6a:	80 93 8e 00 	sts	0x008E, r24	; 0x80008e <__data_end>
					display.setColor(WHITE);
    1d6e:	2f ef       	ldi	r18, 0xFF	; 255
    1d70:	4f ef       	ldi	r20, 0xFF	; 255
    1d72:	6f ef       	ldi	r22, 0xFF	; 255
    1d74:	84 ee       	ldi	r24, 0xE4	; 228
    1d76:	90 e0       	ldi	r25, 0x00	; 0
    1d78:	0e 94 6e 11 	call	0x22dc	; 0x22dc <_ZN4UTFT8setColorEhhh>
					display.print("CORRECT", CENTER, 110);
    1d7c:	00 e0       	ldi	r16, 0x00	; 0
    1d7e:	10 e0       	ldi	r17, 0x00	; 0
    1d80:	2e e6       	ldi	r18, 0x6E	; 110
    1d82:	30 e0       	ldi	r19, 0x00	; 0
    1d84:	4e e0       	ldi	r20, 0x0E	; 14
    1d86:	57 e2       	ldi	r21, 0x27	; 39
    1d88:	66 e8       	ldi	r22, 0x86	; 134
    1d8a:	70 e0       	ldi	r23, 0x00	; 0
    1d8c:	84 ee       	ldi	r24, 0xE4	; 228
    1d8e:	90 e0       	ldi	r25, 0x00	; 0
    1d90:	0e 94 0b 16 	call	0x2c16	; 0x2c16 <_ZN4UTFT5printEPKciii>
    1d94:	06 c0       	rjmp	.+12     	; 0x1da2 <main+0x1b4>
				}
				else{
					error = 1;
    1d96:	81 e0       	ldi	r24, 0x01	; 1
    1d98:	90 e0       	ldi	r25, 0x00	; 0
    1d9a:	90 93 91 00 	sts	0x0091, r25	; 0x800091 <error+0x1>
    1d9e:	80 93 90 00 	sts	0x0090, r24	; 0x800090 <error>
    1da2:	2f ef       	ldi	r18, 0xFF	; 255
    1da4:	8f e3       	ldi	r24, 0x3F	; 63
    1da6:	9b e0       	ldi	r25, 0x0B	; 11
    1da8:	21 50       	subi	r18, 0x01	; 1
    1daa:	80 40       	sbci	r24, 0x00	; 0
    1dac:	90 40       	sbci	r25, 0x00	; 0
    1dae:	e1 f7       	brne	.-8      	; 0x1da8 <main+0x1ba>
    1db0:	00 c0       	rjmp	.+0      	; 0x1db2 <main+0x1c4>
    1db2:	00 00       	nop
				}
				_delay_ms(500);
			}
			if((PINB & (1 << PB2)) == 0){
    1db4:	b2 99       	sbic	0x16, 2	; 22
    1db6:	36 c0       	rjmp	.+108    	; 0x1e24 <main+0x236>
				int x = 3;
				if(correctAnswer[countAnswer] == x){
    1db8:	80 91 8e 00 	lds	r24, 0x008E	; 0x80008e <__data_end>
    1dbc:	90 91 8f 00 	lds	r25, 0x008F	; 0x80008f <__data_end+0x1>
    1dc0:	fc 01       	movw	r30, r24
    1dc2:	ee 0f       	add	r30, r30
    1dc4:	ff 1f       	adc	r31, r31
    1dc6:	ee 56       	subi	r30, 0x6E	; 110
    1dc8:	ff 4f       	sbci	r31, 0xFF	; 255
    1dca:	20 81       	ld	r18, Z
    1dcc:	31 81       	ldd	r19, Z+1	; 0x01
    1dce:	23 30       	cpi	r18, 0x03	; 3
    1dd0:	31 05       	cpc	r19, r1
    1dd2:	c9 f4       	brne	.+50     	; 0x1e06 <main+0x218>
					countAnswer++;
    1dd4:	01 96       	adiw	r24, 0x01	; 1
    1dd6:	90 93 8f 00 	sts	0x008F, r25	; 0x80008f <__data_end+0x1>
    1dda:	80 93 8e 00 	sts	0x008E, r24	; 0x80008e <__data_end>
					display.setColor(WHITE);
    1dde:	2f ef       	ldi	r18, 0xFF	; 255
    1de0:	4f ef       	ldi	r20, 0xFF	; 255
    1de2:	6f ef       	ldi	r22, 0xFF	; 255
    1de4:	84 ee       	ldi	r24, 0xE4	; 228
    1de6:	90 e0       	ldi	r25, 0x00	; 0
    1de8:	0e 94 6e 11 	call	0x22dc	; 0x22dc <_ZN4UTFT8setColorEhhh>
					display.print("CORRECT", CENTER, 110);
    1dec:	00 e0       	ldi	r16, 0x00	; 0
    1dee:	10 e0       	ldi	r17, 0x00	; 0
    1df0:	2e e6       	ldi	r18, 0x6E	; 110
    1df2:	30 e0       	ldi	r19, 0x00	; 0
    1df4:	4e e0       	ldi	r20, 0x0E	; 14
    1df6:	57 e2       	ldi	r21, 0x27	; 39
    1df8:	66 e8       	ldi	r22, 0x86	; 134
    1dfa:	70 e0       	ldi	r23, 0x00	; 0
    1dfc:	84 ee       	ldi	r24, 0xE4	; 228
    1dfe:	90 e0       	ldi	r25, 0x00	; 0
    1e00:	0e 94 0b 16 	call	0x2c16	; 0x2c16 <_ZN4UTFT5printEPKciii>
    1e04:	06 c0       	rjmp	.+12     	; 0x1e12 <main+0x224>
				}
				else{
					error = 1;
    1e06:	81 e0       	ldi	r24, 0x01	; 1
    1e08:	90 e0       	ldi	r25, 0x00	; 0
    1e0a:	90 93 91 00 	sts	0x0091, r25	; 0x800091 <error+0x1>
    1e0e:	80 93 90 00 	sts	0x0090, r24	; 0x800090 <error>
    1e12:	2f ef       	ldi	r18, 0xFF	; 255
    1e14:	8f e3       	ldi	r24, 0x3F	; 63
    1e16:	9b e0       	ldi	r25, 0x0B	; 11
    1e18:	21 50       	subi	r18, 0x01	; 1
    1e1a:	80 40       	sbci	r24, 0x00	; 0
    1e1c:	90 40       	sbci	r25, 0x00	; 0
    1e1e:	e1 f7       	brne	.-8      	; 0x1e18 <main+0x22a>
    1e20:	00 c0       	rjmp	.+0      	; 0x1e22 <main+0x234>
    1e22:	00 00       	nop
				}
				_delay_ms(500);
			}
			if((PINB & (1 << PB3)) == 0){
    1e24:	b3 99       	sbic	0x16, 3	; 22
    1e26:	36 c0       	rjmp	.+108    	; 0x1e94 <main+0x2a6>
				int x = 4;
				if(correctAnswer[countAnswer] == x){
    1e28:	80 91 8e 00 	lds	r24, 0x008E	; 0x80008e <__data_end>
    1e2c:	90 91 8f 00 	lds	r25, 0x008F	; 0x80008f <__data_end+0x1>
    1e30:	fc 01       	movw	r30, r24
    1e32:	ee 0f       	add	r30, r30
    1e34:	ff 1f       	adc	r31, r31
    1e36:	ee 56       	subi	r30, 0x6E	; 110
    1e38:	ff 4f       	sbci	r31, 0xFF	; 255
    1e3a:	20 81       	ld	r18, Z
    1e3c:	31 81       	ldd	r19, Z+1	; 0x01
    1e3e:	24 30       	cpi	r18, 0x04	; 4
    1e40:	31 05       	cpc	r19, r1
    1e42:	c9 f4       	brne	.+50     	; 0x1e76 <main+0x288>
					countAnswer++;
    1e44:	01 96       	adiw	r24, 0x01	; 1
    1e46:	90 93 8f 00 	sts	0x008F, r25	; 0x80008f <__data_end+0x1>
    1e4a:	80 93 8e 00 	sts	0x008E, r24	; 0x80008e <__data_end>
					display.setColor(WHITE);
    1e4e:	2f ef       	ldi	r18, 0xFF	; 255
    1e50:	4f ef       	ldi	r20, 0xFF	; 255
    1e52:	6f ef       	ldi	r22, 0xFF	; 255
    1e54:	84 ee       	ldi	r24, 0xE4	; 228
    1e56:	90 e0       	ldi	r25, 0x00	; 0
    1e58:	0e 94 6e 11 	call	0x22dc	; 0x22dc <_ZN4UTFT8setColorEhhh>
					display.print("CORRECT", CENTER, 110);
    1e5c:	00 e0       	ldi	r16, 0x00	; 0
    1e5e:	10 e0       	ldi	r17, 0x00	; 0
    1e60:	2e e6       	ldi	r18, 0x6E	; 110
    1e62:	30 e0       	ldi	r19, 0x00	; 0
    1e64:	4e e0       	ldi	r20, 0x0E	; 14
    1e66:	57 e2       	ldi	r21, 0x27	; 39
    1e68:	66 e8       	ldi	r22, 0x86	; 134
    1e6a:	70 e0       	ldi	r23, 0x00	; 0
    1e6c:	84 ee       	ldi	r24, 0xE4	; 228
    1e6e:	90 e0       	ldi	r25, 0x00	; 0
    1e70:	0e 94 0b 16 	call	0x2c16	; 0x2c16 <_ZN4UTFT5printEPKciii>
    1e74:	06 c0       	rjmp	.+12     	; 0x1e82 <main+0x294>
				}
				else{
					error = 1;
    1e76:	81 e0       	ldi	r24, 0x01	; 1
    1e78:	90 e0       	ldi	r25, 0x00	; 0
    1e7a:	90 93 91 00 	sts	0x0091, r25	; 0x800091 <error+0x1>
    1e7e:	80 93 90 00 	sts	0x0090, r24	; 0x800090 <error>
    1e82:	2f ef       	ldi	r18, 0xFF	; 255
    1e84:	8f e3       	ldi	r24, 0x3F	; 63
    1e86:	9b e0       	ldi	r25, 0x0B	; 11
    1e88:	21 50       	subi	r18, 0x01	; 1
    1e8a:	80 40       	sbci	r24, 0x00	; 0
    1e8c:	90 40       	sbci	r25, 0x00	; 0
    1e8e:	e1 f7       	brne	.-8      	; 0x1e88 <main+0x29a>
    1e90:	00 c0       	rjmp	.+0      	; 0x1e92 <main+0x2a4>
    1e92:	00 00       	nop
				}
				_delay_ms(500);
			}
			if(countAnswer == numberOfSimons){
    1e94:	20 91 8e 00 	lds	r18, 0x008E	; 0x80008e <__data_end>
    1e98:	30 91 8f 00 	lds	r19, 0x008F	; 0x80008f <__data_end+0x1>
    1e9c:	80 91 64 00 	lds	r24, 0x0064	; 0x800064 <numberOfSimons>
    1ea0:	90 91 65 00 	lds	r25, 0x0065	; 0x800065 <numberOfSimons+0x1>
    1ea4:	28 17       	cp	r18, r24
    1ea6:	39 07       	cpc	r19, r25
    1ea8:	09 f0       	breq	.+2      	; 0x1eac <main+0x2be>
    1eaa:	cc ce       	rjmp	.-616    	; 0x1c44 <main+0x56>
				turnPlayer = 0;
    1eac:	10 92 bb 00 	sts	0x00BB, r1	; 0x8000bb <turnPlayer+0x1>
    1eb0:	10 92 ba 00 	sts	0x00BA, r1	; 0x8000ba <turnPlayer>
				turnCPU = 1;
    1eb4:	21 e0       	ldi	r18, 0x01	; 1
    1eb6:	30 e0       	ldi	r19, 0x00	; 0
    1eb8:	30 93 67 00 	sts	0x0067, r19	; 0x800067 <turnCPU+0x1>
    1ebc:	20 93 66 00 	sts	0x0066, r18	; 0x800066 <turnCPU>
				numberOfSimons++;
    1ec0:	01 96       	adiw	r24, 0x01	; 1
    1ec2:	90 93 65 00 	sts	0x0065, r25	; 0x800065 <numberOfSimons+0x1>
    1ec6:	80 93 64 00 	sts	0x0064, r24	; 0x800064 <numberOfSimons>
				countAnswer = 0;
    1eca:	10 92 8f 00 	sts	0x008F, r1	; 0x80008f <__data_end+0x1>
    1ece:	10 92 8e 00 	sts	0x008E, r1	; 0x80008e <__data_end>
    1ed2:	b8 ce       	rjmp	.-656    	; 0x1c44 <main+0x56>

00001ed4 <_GLOBAL__sub_I_display>:
			}
		}
	}
    1ed4:	6f ef       	ldi	r22, 0xFF	; 255
    1ed6:	7f ef       	ldi	r23, 0xFF	; 255
    1ed8:	81 e0       	ldi	r24, 0x01	; 1
    1eda:	90 e0       	ldi	r25, 0x00	; 0
    1edc:	0e 94 83 09 	call	0x1306	; 0x1306 <_Z41__static_initialization_and_destruction_0ii>
    1ee0:	08 95       	ret

00001ee2 <SSD1289_init>:



void SSD1289_init()
{	
	DATA_PORT_LOW_DDR = 0xff;
    1ee2:	8f ef       	ldi	r24, 0xFF	; 255
    1ee4:	8a bb       	out	0x1a, r24	; 26
	DATA_PORT_HIGH_DDR = 0xff;
    1ee6:	81 bb       	out	0x11, r24	; 17
			
	RS_PORT_DDR |= _BV( RS_PIN);
    1ee8:	84 b3       	in	r24, 0x14	; 20
    1eea:	80 64       	ori	r24, 0x40	; 64
    1eec:	84 bb       	out	0x14, r24	; 20
				
	WR_PORT_DDR |= _BV(WR_PIN);
    1eee:	84 b3       	in	r24, 0x14	; 20
    1ef0:	80 68       	ori	r24, 0x80	; 128
    1ef2:	84 bb       	out	0x14, r24	; 20

	CS_PORT_DDR |= _BV(CS_PIN);
    1ef4:	84 b3       	in	r24, 0x14	; 20
    1ef6:	82 60       	ori	r24, 0x02	; 2
    1ef8:	84 bb       	out	0x14, r24	; 20
		
	RD_PORT_DDR |= _BV(RD_PIN);
    1efa:	87 b3       	in	r24, 0x17	; 23
    1efc:	80 62       	ori	r24, 0x20	; 32
    1efe:	87 bb       	out	0x17, r24	; 23
	RD_PORT |= _BV(RD_PIN);
    1f00:	88 b3       	in	r24, 0x18	; 24
    1f02:	80 62       	ori	r24, 0x20	; 32
    1f04:	88 bb       	out	0x18, r24	; 24
		
	RESET_PORT_DDR |= _BV(RESET_PIN);
    1f06:	84 b3       	in	r24, 0x14	; 20
    1f08:	81 60       	ori	r24, 0x01	; 1
    1f0a:	84 bb       	out	0x14, r24	; 20
		
	BACK_LIGHT_PORT |= _BV(BACK_LIGHT_PIN);
    1f0c:	85 b3       	in	r24, 0x15	; 21
    1f0e:	82 60       	ori	r24, 0x02	; 2
    1f10:	85 bb       	out	0x15, r24	; 21
	
	BACK_LIGHT_DDR |= _BV(BACK_LIGHT_PIN);			
    1f12:	84 b3       	in	r24, 0x14	; 20
    1f14:	82 60       	ori	r24, 0x02	; 2
    1f16:	84 bb       	out	0x14, r24	; 20
	
	sbi(RESET_PORT, RESET_PIN);
    1f18:	85 b3       	in	r24, 0x15	; 21
    1f1a:	81 60       	ori	r24, 0x01	; 1
    1f1c:	85 bb       	out	0x15, r24	; 21
    1f1e:	8f ef       	ldi	r24, 0xFF	; 255
    1f20:	93 e2       	ldi	r25, 0x23	; 35
    1f22:	01 97       	sbiw	r24, 0x01	; 1
    1f24:	f1 f7       	brne	.-4      	; 0x1f22 <SSD1289_init+0x40>
    1f26:	00 c0       	rjmp	.+0      	; 0x1f28 <SSD1289_init+0x46>
    1f28:	00 00       	nop
	_delay_ms(5);
	cbi(RESET_PORT, RESET_PIN);
    1f2a:	85 b3       	in	r24, 0x15	; 21
    1f2c:	8e 7f       	andi	r24, 0xFE	; 254
    1f2e:	85 bb       	out	0x15, r24	; 21
    1f30:	8f ef       	ldi	r24, 0xFF	; 255
    1f32:	9b e6       	ldi	r25, 0x6B	; 107
    1f34:	01 97       	sbiw	r24, 0x01	; 1
    1f36:	f1 f7       	brne	.-4      	; 0x1f34 <SSD1289_init+0x52>
    1f38:	00 c0       	rjmp	.+0      	; 0x1f3a <SSD1289_init+0x58>
    1f3a:	00 00       	nop
	_delay_ms(15);
	sbi(RESET_PORT, RESET_PIN);
    1f3c:	85 b3       	in	r24, 0x15	; 21
    1f3e:	81 60       	ori	r24, 0x01	; 1
    1f40:	85 bb       	out	0x15, r24	; 21
    1f42:	8f ef       	ldi	r24, 0xFF	; 255
    1f44:	9b e6       	ldi	r25, 0x6B	; 107
    1f46:	01 97       	sbiw	r24, 0x01	; 1
    1f48:	f1 f7       	brne	.-4      	; 0x1f46 <SSD1289_init+0x64>
    1f4a:	00 c0       	rjmp	.+0      	; 0x1f4c <SSD1289_init+0x6a>
    1f4c:	00 00       	nop
	_delay_ms(15);

	cbi(CS_PORT, CS_PIN);
    1f4e:	85 b3       	in	r24, 0x15	; 21
    1f50:	8d 7f       	andi	r24, 0xFD	; 253
    1f52:	85 bb       	out	0x15, r24	; 21

	LCD_Write_COM_DATA(0x00,0x0001);
    1f54:	61 e0       	ldi	r22, 0x01	; 1
    1f56:	70 e0       	ldi	r23, 0x00	; 0
    1f58:	80 e0       	ldi	r24, 0x00	; 0
    1f5a:	0e 94 42 07 	call	0xe84	; 0xe84 <LCD_Write_COM_DATA>
	LCD_Write_COM_DATA(0x03,0xA8A4);
    1f5e:	64 ea       	ldi	r22, 0xA4	; 164
    1f60:	78 ea       	ldi	r23, 0xA8	; 168
    1f62:	83 e0       	ldi	r24, 0x03	; 3
    1f64:	0e 94 42 07 	call	0xe84	; 0xe84 <LCD_Write_COM_DATA>
	LCD_Write_COM_DATA(0x0C,0x0000);
    1f68:	60 e0       	ldi	r22, 0x00	; 0
    1f6a:	70 e0       	ldi	r23, 0x00	; 0
    1f6c:	8c e0       	ldi	r24, 0x0C	; 12
    1f6e:	0e 94 42 07 	call	0xe84	; 0xe84 <LCD_Write_COM_DATA>
	LCD_Write_COM_DATA(0x0D,0x080C);
    1f72:	6c e0       	ldi	r22, 0x0C	; 12
    1f74:	78 e0       	ldi	r23, 0x08	; 8
    1f76:	8d e0       	ldi	r24, 0x0D	; 13
    1f78:	0e 94 42 07 	call	0xe84	; 0xe84 <LCD_Write_COM_DATA>
	LCD_Write_COM_DATA(0x0E,0x2B00);
    1f7c:	60 e0       	ldi	r22, 0x00	; 0
    1f7e:	7b e2       	ldi	r23, 0x2B	; 43
    1f80:	8e e0       	ldi	r24, 0x0E	; 14
    1f82:	0e 94 42 07 	call	0xe84	; 0xe84 <LCD_Write_COM_DATA>
	LCD_Write_COM_DATA(0x1E,0x00B7);
    1f86:	67 eb       	ldi	r22, 0xB7	; 183
    1f88:	70 e0       	ldi	r23, 0x00	; 0
    1f8a:	8e e1       	ldi	r24, 0x1E	; 30
    1f8c:	0e 94 42 07 	call	0xe84	; 0xe84 <LCD_Write_COM_DATA>
	LCD_Write_COM_DATA(0x01,0x2B3F);
    1f90:	6f e3       	ldi	r22, 0x3F	; 63
    1f92:	7b e2       	ldi	r23, 0x2B	; 43
    1f94:	81 e0       	ldi	r24, 0x01	; 1
    1f96:	0e 94 42 07 	call	0xe84	; 0xe84 <LCD_Write_COM_DATA>
	LCD_Write_COM_DATA(0x02,0x0600);
    1f9a:	60 e0       	ldi	r22, 0x00	; 0
    1f9c:	76 e0       	ldi	r23, 0x06	; 6
    1f9e:	82 e0       	ldi	r24, 0x02	; 2
    1fa0:	0e 94 42 07 	call	0xe84	; 0xe84 <LCD_Write_COM_DATA>
	LCD_Write_COM_DATA(0x10,0x0000);
    1fa4:	60 e0       	ldi	r22, 0x00	; 0
    1fa6:	70 e0       	ldi	r23, 0x00	; 0
    1fa8:	80 e1       	ldi	r24, 0x10	; 16
    1faa:	0e 94 42 07 	call	0xe84	; 0xe84 <LCD_Write_COM_DATA>
	LCD_Write_COM_DATA(0x11,0x6070);
    1fae:	60 e7       	ldi	r22, 0x70	; 112
    1fb0:	70 e6       	ldi	r23, 0x60	; 96
    1fb2:	81 e1       	ldi	r24, 0x11	; 17
    1fb4:	0e 94 42 07 	call	0xe84	; 0xe84 <LCD_Write_COM_DATA>
	LCD_Write_COM_DATA(0x05,0x0000);
    1fb8:	60 e0       	ldi	r22, 0x00	; 0
    1fba:	70 e0       	ldi	r23, 0x00	; 0
    1fbc:	85 e0       	ldi	r24, 0x05	; 5
    1fbe:	0e 94 42 07 	call	0xe84	; 0xe84 <LCD_Write_COM_DATA>
	LCD_Write_COM_DATA(0x06,0x0000);
    1fc2:	60 e0       	ldi	r22, 0x00	; 0
    1fc4:	70 e0       	ldi	r23, 0x00	; 0
    1fc6:	86 e0       	ldi	r24, 0x06	; 6
    1fc8:	0e 94 42 07 	call	0xe84	; 0xe84 <LCD_Write_COM_DATA>
	LCD_Write_COM_DATA(0x16,0xEF1C);
    1fcc:	6c e1       	ldi	r22, 0x1C	; 28
    1fce:	7f ee       	ldi	r23, 0xEF	; 239
    1fd0:	86 e1       	ldi	r24, 0x16	; 22
    1fd2:	0e 94 42 07 	call	0xe84	; 0xe84 <LCD_Write_COM_DATA>
	LCD_Write_COM_DATA(0x17,0x0003);
    1fd6:	63 e0       	ldi	r22, 0x03	; 3
    1fd8:	70 e0       	ldi	r23, 0x00	; 0
    1fda:	87 e1       	ldi	r24, 0x17	; 23
    1fdc:	0e 94 42 07 	call	0xe84	; 0xe84 <LCD_Write_COM_DATA>
	LCD_Write_COM_DATA(0x07,0x0233);
    1fe0:	63 e3       	ldi	r22, 0x33	; 51
    1fe2:	72 e0       	ldi	r23, 0x02	; 2
    1fe4:	87 e0       	ldi	r24, 0x07	; 7
    1fe6:	0e 94 42 07 	call	0xe84	; 0xe84 <LCD_Write_COM_DATA>
	LCD_Write_COM_DATA(0x0B,0x0000);
    1fea:	60 e0       	ldi	r22, 0x00	; 0
    1fec:	70 e0       	ldi	r23, 0x00	; 0
    1fee:	8b e0       	ldi	r24, 0x0B	; 11
    1ff0:	0e 94 42 07 	call	0xe84	; 0xe84 <LCD_Write_COM_DATA>
	LCD_Write_COM_DATA(0x0F,0x0000);
    1ff4:	60 e0       	ldi	r22, 0x00	; 0
    1ff6:	70 e0       	ldi	r23, 0x00	; 0
    1ff8:	8f e0       	ldi	r24, 0x0F	; 15
    1ffa:	0e 94 42 07 	call	0xe84	; 0xe84 <LCD_Write_COM_DATA>
	LCD_Write_COM_DATA(0x41,0x0000);
    1ffe:	60 e0       	ldi	r22, 0x00	; 0
    2000:	70 e0       	ldi	r23, 0x00	; 0
    2002:	81 e4       	ldi	r24, 0x41	; 65
    2004:	0e 94 42 07 	call	0xe84	; 0xe84 <LCD_Write_COM_DATA>
	LCD_Write_COM_DATA(0x42,0x0000);
    2008:	60 e0       	ldi	r22, 0x00	; 0
    200a:	70 e0       	ldi	r23, 0x00	; 0
    200c:	82 e4       	ldi	r24, 0x42	; 66
    200e:	0e 94 42 07 	call	0xe84	; 0xe84 <LCD_Write_COM_DATA>
	LCD_Write_COM_DATA(0x48,0x0000);
    2012:	60 e0       	ldi	r22, 0x00	; 0
    2014:	70 e0       	ldi	r23, 0x00	; 0
    2016:	88 e4       	ldi	r24, 0x48	; 72
    2018:	0e 94 42 07 	call	0xe84	; 0xe84 <LCD_Write_COM_DATA>
	LCD_Write_COM_DATA(0x49,0x013F);
    201c:	6f e3       	ldi	r22, 0x3F	; 63
    201e:	71 e0       	ldi	r23, 0x01	; 1
    2020:	89 e4       	ldi	r24, 0x49	; 73
    2022:	0e 94 42 07 	call	0xe84	; 0xe84 <LCD_Write_COM_DATA>
	LCD_Write_COM_DATA(0x4A,0x0000);
    2026:	60 e0       	ldi	r22, 0x00	; 0
    2028:	70 e0       	ldi	r23, 0x00	; 0
    202a:	8a e4       	ldi	r24, 0x4A	; 74
    202c:	0e 94 42 07 	call	0xe84	; 0xe84 <LCD_Write_COM_DATA>
	LCD_Write_COM_DATA(0x4B,0x0000);
    2030:	60 e0       	ldi	r22, 0x00	; 0
    2032:	70 e0       	ldi	r23, 0x00	; 0
    2034:	8b e4       	ldi	r24, 0x4B	; 75
    2036:	0e 94 42 07 	call	0xe84	; 0xe84 <LCD_Write_COM_DATA>
	LCD_Write_COM_DATA(0x44,0xEF00);
    203a:	60 e0       	ldi	r22, 0x00	; 0
    203c:	7f ee       	ldi	r23, 0xEF	; 239
    203e:	84 e4       	ldi	r24, 0x44	; 68
    2040:	0e 94 42 07 	call	0xe84	; 0xe84 <LCD_Write_COM_DATA>
	LCD_Write_COM_DATA(0x45,0x0000);
    2044:	60 e0       	ldi	r22, 0x00	; 0
    2046:	70 e0       	ldi	r23, 0x00	; 0
    2048:	85 e4       	ldi	r24, 0x45	; 69
    204a:	0e 94 42 07 	call	0xe84	; 0xe84 <LCD_Write_COM_DATA>
	LCD_Write_COM_DATA(0x46,0x013F);
    204e:	6f e3       	ldi	r22, 0x3F	; 63
    2050:	71 e0       	ldi	r23, 0x01	; 1
    2052:	86 e4       	ldi	r24, 0x46	; 70
    2054:	0e 94 42 07 	call	0xe84	; 0xe84 <LCD_Write_COM_DATA>
	LCD_Write_COM_DATA(0x30,0x0707);
    2058:	67 e0       	ldi	r22, 0x07	; 7
    205a:	77 e0       	ldi	r23, 0x07	; 7
    205c:	80 e3       	ldi	r24, 0x30	; 48
    205e:	0e 94 42 07 	call	0xe84	; 0xe84 <LCD_Write_COM_DATA>
	LCD_Write_COM_DATA(0x31,0x0204);
    2062:	64 e0       	ldi	r22, 0x04	; 4
    2064:	72 e0       	ldi	r23, 0x02	; 2
    2066:	81 e3       	ldi	r24, 0x31	; 49
    2068:	0e 94 42 07 	call	0xe84	; 0xe84 <LCD_Write_COM_DATA>
	LCD_Write_COM_DATA(0x32,0x0204);
    206c:	64 e0       	ldi	r22, 0x04	; 4
    206e:	72 e0       	ldi	r23, 0x02	; 2
    2070:	82 e3       	ldi	r24, 0x32	; 50
    2072:	0e 94 42 07 	call	0xe84	; 0xe84 <LCD_Write_COM_DATA>
	LCD_Write_COM_DATA(0x33,0x0502);
    2076:	62 e0       	ldi	r22, 0x02	; 2
    2078:	75 e0       	ldi	r23, 0x05	; 5
    207a:	83 e3       	ldi	r24, 0x33	; 51
    207c:	0e 94 42 07 	call	0xe84	; 0xe84 <LCD_Write_COM_DATA>
	LCD_Write_COM_DATA(0x34,0x0507);
    2080:	67 e0       	ldi	r22, 0x07	; 7
    2082:	75 e0       	ldi	r23, 0x05	; 5
    2084:	84 e3       	ldi	r24, 0x34	; 52
    2086:	0e 94 42 07 	call	0xe84	; 0xe84 <LCD_Write_COM_DATA>
	LCD_Write_COM_DATA(0x35,0x0204);
    208a:	64 e0       	ldi	r22, 0x04	; 4
    208c:	72 e0       	ldi	r23, 0x02	; 2
    208e:	85 e3       	ldi	r24, 0x35	; 53
    2090:	0e 94 42 07 	call	0xe84	; 0xe84 <LCD_Write_COM_DATA>
	LCD_Write_COM_DATA(0x36,0x0204);
    2094:	64 e0       	ldi	r22, 0x04	; 4
    2096:	72 e0       	ldi	r23, 0x02	; 2
    2098:	86 e3       	ldi	r24, 0x36	; 54
    209a:	0e 94 42 07 	call	0xe84	; 0xe84 <LCD_Write_COM_DATA>
	LCD_Write_COM_DATA(0x37,0x0502);
    209e:	62 e0       	ldi	r22, 0x02	; 2
    20a0:	75 e0       	ldi	r23, 0x05	; 5
    20a2:	87 e3       	ldi	r24, 0x37	; 55
    20a4:	0e 94 42 07 	call	0xe84	; 0xe84 <LCD_Write_COM_DATA>
	LCD_Write_COM_DATA(0x3A,0x0302);
    20a8:	62 e0       	ldi	r22, 0x02	; 2
    20aa:	73 e0       	ldi	r23, 0x03	; 3
    20ac:	8a e3       	ldi	r24, 0x3A	; 58
    20ae:	0e 94 42 07 	call	0xe84	; 0xe84 <LCD_Write_COM_DATA>
	LCD_Write_COM_DATA(0x3B,0x0302);
    20b2:	62 e0       	ldi	r22, 0x02	; 2
    20b4:	73 e0       	ldi	r23, 0x03	; 3
    20b6:	8b e3       	ldi	r24, 0x3B	; 59
    20b8:	0e 94 42 07 	call	0xe84	; 0xe84 <LCD_Write_COM_DATA>
	LCD_Write_COM_DATA(0x23,0x0000);
    20bc:	60 e0       	ldi	r22, 0x00	; 0
    20be:	70 e0       	ldi	r23, 0x00	; 0
    20c0:	83 e2       	ldi	r24, 0x23	; 35
    20c2:	0e 94 42 07 	call	0xe84	; 0xe84 <LCD_Write_COM_DATA>
	LCD_Write_COM_DATA(0x24,0x0000);
    20c6:	60 e0       	ldi	r22, 0x00	; 0
    20c8:	70 e0       	ldi	r23, 0x00	; 0
    20ca:	84 e2       	ldi	r24, 0x24	; 36
    20cc:	0e 94 42 07 	call	0xe84	; 0xe84 <LCD_Write_COM_DATA>
	LCD_Write_COM_DATA(0x25,0x8000);
    20d0:	60 e0       	ldi	r22, 0x00	; 0
    20d2:	70 e8       	ldi	r23, 0x80	; 128
    20d4:	85 e2       	ldi	r24, 0x25	; 37
    20d6:	0e 94 42 07 	call	0xe84	; 0xe84 <LCD_Write_COM_DATA>
	LCD_Write_COM_DATA(0x4f,0x0000);
    20da:	60 e0       	ldi	r22, 0x00	; 0
    20dc:	70 e0       	ldi	r23, 0x00	; 0
    20de:	8f e4       	ldi	r24, 0x4F	; 79
    20e0:	0e 94 42 07 	call	0xe84	; 0xe84 <LCD_Write_COM_DATA>
	LCD_Write_COM_DATA(0x4e,0x0000);
    20e4:	60 e0       	ldi	r22, 0x00	; 0
    20e6:	70 e0       	ldi	r23, 0x00	; 0
    20e8:	8e e4       	ldi	r24, 0x4E	; 78
    20ea:	0e 94 42 07 	call	0xe84	; 0xe84 <LCD_Write_COM_DATA>
	LCD_Write_COM(0x22);
    20ee:	82 e2       	ldi	r24, 0x22	; 34
    20f0:	0e 94 2e 07 	call	0xe5c	; 0xe5c <LCD_Write_COM>


	sbi(CS_PORT, CS_PIN);
    20f4:	85 b3       	in	r24, 0x15	; 21
    20f6:	82 60       	ori	r24, 0x02	; 2
    20f8:	85 bb       	out	0x15, r24	; 21
    20fa:	08 95       	ret

000020fc <_ZN4UTFTC1Ev>:
		}
		st[c2+f]=0;
	}

	print(st,x,y);
}
    20fc:	4f ee       	ldi	r20, 0xEF	; 239
    20fe:	50 e0       	ldi	r21, 0x00	; 0
    2100:	60 e0       	ldi	r22, 0x00	; 0
    2102:	70 e0       	ldi	r23, 0x00	; 0
    2104:	fc 01       	movw	r30, r24
    2106:	45 83       	std	Z+5, r20	; 0x05
    2108:	56 83       	std	Z+6, r21	; 0x06
    210a:	67 83       	std	Z+7, r22	; 0x07
    210c:	70 87       	std	Z+8, r23	; 0x08
    210e:	4f e3       	ldi	r20, 0x3F	; 63
    2110:	51 e0       	ldi	r21, 0x01	; 1
    2112:	60 e0       	ldi	r22, 0x00	; 0
    2114:	70 e0       	ldi	r23, 0x00	; 0
    2116:	41 87       	std	Z+9, r20	; 0x09
    2118:	52 87       	std	Z+10, r21	; 0x0a
    211a:	63 87       	std	Z+11, r22	; 0x0b
    211c:	74 87       	std	Z+12, r23	; 0x0c
    211e:	0e 94 71 0f 	call	0x1ee2	; 0x1ee2 <SSD1289_init>
    2122:	08 95       	ret

00002124 <_ZN4UTFT5setXYEjjjj>:
    2124:	ef 92       	push	r14
    2126:	ff 92       	push	r15
    2128:	0f 93       	push	r16
    212a:	1f 93       	push	r17
    212c:	cf 93       	push	r28
    212e:	df 93       	push	r29
    2130:	eb 01       	movw	r28, r22
    2132:	e4 2e       	mov	r14, r20
    2134:	f5 2e       	mov	r15, r21
    2136:	fc 01       	movw	r30, r24
    2138:	44 81       	ldd	r20, Z+4	; 0x04
    213a:	41 30       	cpi	r20, 0x01	; 1
    213c:	89 f4       	brne	.+34     	; 0x2160 <_ZN4UTFT5setXYEjjjj+0x3c>
    213e:	81 85       	ldd	r24, Z+9	; 0x09
    2140:	92 85       	ldd	r25, Z+10	; 0x0a
    2142:	a3 85       	ldd	r26, Z+11	; 0x0b
    2144:	b4 85       	ldd	r27, Z+12	; 0x0c
    2146:	ac 01       	movw	r20, r24
    2148:	46 1b       	sub	r20, r22
    214a:	57 0b       	sbc	r21, r23
    214c:	82 1b       	sub	r24, r18
    214e:	93 0b       	sbc	r25, r19
    2150:	20 2f       	mov	r18, r16
    2152:	31 2f       	mov	r19, r17
    2154:	04 2f       	mov	r16, r20
    2156:	15 2f       	mov	r17, r21
    2158:	ce 2d       	mov	r28, r14
    215a:	df 2d       	mov	r29, r15
    215c:	e8 2e       	mov	r14, r24
    215e:	f9 2e       	mov	r15, r25
    2160:	32 2f       	mov	r19, r18
    2162:	22 27       	eor	r18, r18
    2164:	be 01       	movw	r22, r28
    2166:	62 0f       	add	r22, r18
    2168:	73 1f       	adc	r23, r19
    216a:	84 e4       	ldi	r24, 0x44	; 68
    216c:	0e 94 42 07 	call	0xe84	; 0xe84 <LCD_Write_COM_DATA>
    2170:	6e 2d       	mov	r22, r14
    2172:	7f 2d       	mov	r23, r15
    2174:	85 e4       	ldi	r24, 0x45	; 69
    2176:	0e 94 42 07 	call	0xe84	; 0xe84 <LCD_Write_COM_DATA>
    217a:	60 2f       	mov	r22, r16
    217c:	71 2f       	mov	r23, r17
    217e:	86 e4       	ldi	r24, 0x46	; 70
    2180:	0e 94 42 07 	call	0xe84	; 0xe84 <LCD_Write_COM_DATA>
    2184:	be 01       	movw	r22, r28
    2186:	8e e4       	ldi	r24, 0x4E	; 78
    2188:	0e 94 42 07 	call	0xe84	; 0xe84 <LCD_Write_COM_DATA>
    218c:	6e 2d       	mov	r22, r14
    218e:	7f 2d       	mov	r23, r15
    2190:	8f e4       	ldi	r24, 0x4F	; 79
    2192:	0e 94 42 07 	call	0xe84	; 0xe84 <LCD_Write_COM_DATA>
    2196:	82 e2       	ldi	r24, 0x22	; 34
    2198:	0e 94 2e 07 	call	0xe5c	; 0xe5c <LCD_Write_COM>
    219c:	85 b3       	in	r24, 0x15	; 21
    219e:	80 64       	ori	r24, 0x40	; 64
    21a0:	85 bb       	out	0x15, r24	; 21
    21a2:	df 91       	pop	r29
    21a4:	cf 91       	pop	r28
    21a6:	1f 91       	pop	r17
    21a8:	0f 91       	pop	r16
    21aa:	ff 90       	pop	r15
    21ac:	ef 90       	pop	r14
    21ae:	08 95       	ret

000021b0 <_ZN4UTFT8fillRectEiiii>:
    21b0:	8f 92       	push	r8
    21b2:	9f 92       	push	r9
    21b4:	af 92       	push	r10
    21b6:	bf 92       	push	r11
    21b8:	cf 92       	push	r12
    21ba:	df 92       	push	r13
    21bc:	ef 92       	push	r14
    21be:	ff 92       	push	r15
    21c0:	0f 93       	push	r16
    21c2:	1f 93       	push	r17
    21c4:	cf 93       	push	r28
    21c6:	df 93       	push	r29
    21c8:	4c 01       	movw	r8, r24
    21ca:	5b 01       	movw	r10, r22
    21cc:	7a 01       	movw	r14, r20
    21ce:	69 01       	movw	r12, r18
    21d0:	e8 01       	movw	r28, r16
    21d2:	26 17       	cp	r18, r22
    21d4:	37 07       	cpc	r19, r23
    21d6:	24 f4       	brge	.+8      	; 0x21e0 <_ZN4UTFT8fillRectEiiii+0x30>
    21d8:	8b 2d       	mov	r24, r11
    21da:	59 01       	movw	r10, r18
    21dc:	c6 2e       	mov	r12, r22
    21de:	d8 2e       	mov	r13, r24
    21e0:	ce 15       	cp	r28, r14
    21e2:	df 05       	cpc	r29, r15
    21e4:	2c f4       	brge	.+10     	; 0x21f0 <_ZN4UTFT8fillRectEiiii+0x40>
    21e6:	9e 2d       	mov	r25, r14
    21e8:	8f 2d       	mov	r24, r15
    21ea:	7e 01       	movw	r14, r28
    21ec:	c9 2f       	mov	r28, r25
    21ee:	d8 2f       	mov	r29, r24
    21f0:	85 b3       	in	r24, 0x15	; 21
    21f2:	8d 7f       	andi	r24, 0xFD	; 253
    21f4:	85 bb       	out	0x15, r24	; 21
    21f6:	8e 01       	movw	r16, r28
    21f8:	96 01       	movw	r18, r12
    21fa:	a7 01       	movw	r20, r14
    21fc:	b5 01       	movw	r22, r10
    21fe:	c4 01       	movw	r24, r8
    2200:	0e 94 92 10 	call	0x2124	; 0x2124 <_ZN4UTFT5setXYEjjjj>
    2204:	f4 01       	movw	r30, r8
    2206:	80 81       	ld	r24, Z
    2208:	82 bb       	out	0x12, r24	; 18
    220a:	81 81       	ldd	r24, Z+1	; 0x01
    220c:	8b bb       	out	0x1b, r24	; 27
    220e:	96 01       	movw	r18, r12
    2210:	2a 19       	sub	r18, r10
    2212:	3b 09       	sbc	r19, r11
    2214:	c9 01       	movw	r24, r18
    2216:	33 0f       	add	r19, r19
    2218:	aa 0b       	sbc	r26, r26
    221a:	bb 0b       	sbc	r27, r27
    221c:	9c 01       	movw	r18, r24
    221e:	ad 01       	movw	r20, r26
    2220:	2f 5f       	subi	r18, 0xFF	; 255
    2222:	3f 4f       	sbci	r19, 0xFF	; 255
    2224:	4f 4f       	sbci	r20, 0xFF	; 255
    2226:	5f 4f       	sbci	r21, 0xFF	; 255
    2228:	be 01       	movw	r22, r28
    222a:	6e 19       	sub	r22, r14
    222c:	7f 09       	sbc	r23, r15
    222e:	cb 01       	movw	r24, r22
    2230:	77 0f       	add	r23, r23
    2232:	aa 0b       	sbc	r26, r26
    2234:	bb 0b       	sbc	r27, r27
    2236:	bc 01       	movw	r22, r24
    2238:	cd 01       	movw	r24, r26
    223a:	6f 5f       	subi	r22, 0xFF	; 255
    223c:	7f 4f       	sbci	r23, 0xFF	; 255
    223e:	8f 4f       	sbci	r24, 0xFF	; 255
    2240:	9f 4f       	sbci	r25, 0xFF	; 255
    2242:	0e 94 34 19 	call	0x3268	; 0x3268 <__mulsi3>
    2246:	0e 94 e5 06 	call	0xdca	; 0xdca <fastfill>
    224a:	8f ef       	ldi	r24, 0xFF	; 255
    224c:	8b bb       	out	0x1b, r24	; 27
    224e:	82 bb       	out	0x12, r24	; 18
    2250:	85 b3       	in	r24, 0x15	; 21
    2252:	8d 7f       	andi	r24, 0xFD	; 253
    2254:	85 bb       	out	0x15, r24	; 21
    2256:	df 91       	pop	r29
    2258:	cf 91       	pop	r28
    225a:	1f 91       	pop	r17
    225c:	0f 91       	pop	r16
    225e:	ff 90       	pop	r15
    2260:	ef 90       	pop	r14
    2262:	df 90       	pop	r13
    2264:	cf 90       	pop	r12
    2266:	bf 90       	pop	r11
    2268:	af 90       	pop	r10
    226a:	9f 90       	pop	r9
    226c:	8f 90       	pop	r8
    226e:	08 95       	ret

00002270 <_ZN4UTFT6clrScrEv>:
    2270:	85 b3       	in	r24, 0x15	; 21
    2272:	8d 7f       	andi	r24, 0xFD	; 253
    2274:	85 bb       	out	0x15, r24	; 21
    2276:	60 e0       	ldi	r22, 0x00	; 0
    2278:	7f ee       	ldi	r23, 0xEF	; 239
    227a:	84 e4       	ldi	r24, 0x44	; 68
    227c:	0e 94 42 07 	call	0xe84	; 0xe84 <LCD_Write_COM_DATA>
    2280:	60 e0       	ldi	r22, 0x00	; 0
    2282:	70 e0       	ldi	r23, 0x00	; 0
    2284:	85 e4       	ldi	r24, 0x45	; 69
    2286:	0e 94 42 07 	call	0xe84	; 0xe84 <LCD_Write_COM_DATA>
    228a:	6f e3       	ldi	r22, 0x3F	; 63
    228c:	71 e0       	ldi	r23, 0x01	; 1
    228e:	86 e4       	ldi	r24, 0x46	; 70
    2290:	0e 94 42 07 	call	0xe84	; 0xe84 <LCD_Write_COM_DATA>
    2294:	60 e0       	ldi	r22, 0x00	; 0
    2296:	70 e0       	ldi	r23, 0x00	; 0
    2298:	8e e4       	ldi	r24, 0x4E	; 78
    229a:	0e 94 42 07 	call	0xe84	; 0xe84 <LCD_Write_COM_DATA>
    229e:	60 e0       	ldi	r22, 0x00	; 0
    22a0:	70 e0       	ldi	r23, 0x00	; 0
    22a2:	8f e4       	ldi	r24, 0x4F	; 79
    22a4:	0e 94 42 07 	call	0xe84	; 0xe84 <LCD_Write_COM_DATA>
    22a8:	68 e7       	ldi	r22, 0x78	; 120
    22aa:	70 e6       	ldi	r23, 0x60	; 96
    22ac:	81 e1       	ldi	r24, 0x11	; 17
    22ae:	0e 94 42 07 	call	0xe84	; 0xe84 <LCD_Write_COM_DATA>
    22b2:	82 e2       	ldi	r24, 0x22	; 34
    22b4:	0e 94 2e 07 	call	0xe5c	; 0xe5c <LCD_Write_COM>
    22b8:	85 b3       	in	r24, 0x15	; 21
    22ba:	80 64       	ori	r24, 0x40	; 64
    22bc:	85 bb       	out	0x15, r24	; 21
    22be:	1b ba       	out	0x1b, r1	; 27
    22c0:	12 ba       	out	0x12, r1	; 18
    22c2:	60 e0       	ldi	r22, 0x00	; 0
    22c4:	7c e2       	ldi	r23, 0x2C	; 44
    22c6:	81 e0       	ldi	r24, 0x01	; 1
    22c8:	90 e0       	ldi	r25, 0x00	; 0
    22ca:	0e 94 e5 06 	call	0xdca	; 0xdca <fastfill>
    22ce:	8f ef       	ldi	r24, 0xFF	; 255
    22d0:	8b bb       	out	0x1b, r24	; 27
    22d2:	82 bb       	out	0x12, r24	; 18
    22d4:	85 b3       	in	r24, 0x15	; 21
    22d6:	8d 7f       	andi	r24, 0xFD	; 253
    22d8:	85 bb       	out	0x15, r24	; 21
    22da:	08 95       	ret

000022dc <_ZN4UTFT8setColorEhhh>:
    22dc:	e4 2f       	mov	r30, r20
    22de:	f0 e0       	ldi	r31, 0x00	; 0
    22e0:	f5 95       	asr	r31
    22e2:	e7 95       	ror	r30
    22e4:	f5 95       	asr	r31
    22e6:	e7 95       	ror	r30
    22e8:	f5 95       	asr	r31
    22ea:	e7 95       	ror	r30
    22ec:	f5 95       	asr	r31
    22ee:	e7 95       	ror	r30
    22f0:	f5 95       	asr	r31
    22f2:	e7 95       	ror	r30
    22f4:	68 7f       	andi	r22, 0xF8	; 248
    22f6:	e6 2b       	or	r30, r22
    22f8:	dc 01       	movw	r26, r24
    22fa:	ec 93       	st	X, r30
    22fc:	4c 71       	andi	r20, 0x1C	; 28
    22fe:	50 e0       	ldi	r21, 0x00	; 0
    2300:	44 0f       	add	r20, r20
    2302:	55 1f       	adc	r21, r21
    2304:	44 0f       	add	r20, r20
    2306:	55 1f       	adc	r21, r21
    2308:	44 0f       	add	r20, r20
    230a:	55 1f       	adc	r21, r21
    230c:	30 e0       	ldi	r19, 0x00	; 0
    230e:	35 95       	asr	r19
    2310:	27 95       	ror	r18
    2312:	35 95       	asr	r19
    2314:	27 95       	ror	r18
    2316:	35 95       	asr	r19
    2318:	27 95       	ror	r18
    231a:	42 2b       	or	r20, r18
    231c:	11 96       	adiw	r26, 0x01	; 1
    231e:	4c 93       	st	X, r20
    2320:	08 95       	ret

00002322 <_ZN4UTFT12setBackColorEhhh>:
    2322:	e4 2f       	mov	r30, r20
    2324:	f0 e0       	ldi	r31, 0x00	; 0
    2326:	f5 95       	asr	r31
    2328:	e7 95       	ror	r30
    232a:	f5 95       	asr	r31
    232c:	e7 95       	ror	r30
    232e:	f5 95       	asr	r31
    2330:	e7 95       	ror	r30
    2332:	f5 95       	asr	r31
    2334:	e7 95       	ror	r30
    2336:	f5 95       	asr	r31
    2338:	e7 95       	ror	r30
    233a:	68 7f       	andi	r22, 0xF8	; 248
    233c:	e6 2b       	or	r30, r22
    233e:	dc 01       	movw	r26, r24
    2340:	12 96       	adiw	r26, 0x02	; 2
    2342:	ec 93       	st	X, r30
    2344:	12 97       	sbiw	r26, 0x02	; 2
    2346:	4c 71       	andi	r20, 0x1C	; 28
    2348:	50 e0       	ldi	r21, 0x00	; 0
    234a:	44 0f       	add	r20, r20
    234c:	55 1f       	adc	r21, r21
    234e:	44 0f       	add	r20, r20
    2350:	55 1f       	adc	r21, r21
    2352:	44 0f       	add	r20, r20
    2354:	55 1f       	adc	r21, r21
    2356:	30 e0       	ldi	r19, 0x00	; 0
    2358:	35 95       	asr	r19
    235a:	27 95       	ror	r18
    235c:	35 95       	asr	r19
    235e:	27 95       	ror	r18
    2360:	35 95       	asr	r19
    2362:	27 95       	ror	r18
    2364:	42 2b       	or	r20, r18
    2366:	13 96       	adiw	r26, 0x03	; 3
    2368:	4c 93       	st	X, r20
    236a:	08 95       	ret

0000236c <_ZN4UTFT7InitLCDEh>:
    236c:	cf 93       	push	r28
    236e:	df 93       	push	r29
    2370:	ec 01       	movw	r28, r24
    2372:	6c 83       	std	Y+4, r22	; 0x04
    2374:	2f ef       	ldi	r18, 0xFF	; 255
    2376:	4f ef       	ldi	r20, 0xFF	; 255
    2378:	6f ef       	ldi	r22, 0xFF	; 255
    237a:	0e 94 6e 11 	call	0x22dc	; 0x22dc <_ZN4UTFT8setColorEhhh>
    237e:	20 e0       	ldi	r18, 0x00	; 0
    2380:	40 e0       	ldi	r20, 0x00	; 0
    2382:	60 e0       	ldi	r22, 0x00	; 0
    2384:	ce 01       	movw	r24, r28
    2386:	0e 94 91 11 	call	0x2322	; 0x2322 <_ZN4UTFT12setBackColorEhhh>
    238a:	1e 86       	std	Y+14, r1	; 0x0e
    238c:	1d 86       	std	Y+13, r1	; 0x0d
    238e:	df 91       	pop	r29
    2390:	cf 91       	pop	r28
    2392:	08 95       	ret

00002394 <_ZN4UTFT8setPixelEj>:
    2394:	87 2f       	mov	r24, r23
    2396:	0e 94 35 07 	call	0xe6a	; 0xe6a <LCD_Write_DATA>
    239a:	08 95       	ret

0000239c <_ZN4UTFT9drawHLineEiii>:
    239c:	ef 92       	push	r14
    239e:	ff 92       	push	r15
    23a0:	0f 93       	push	r16
    23a2:	1f 93       	push	r17
    23a4:	cf 93       	push	r28
    23a6:	df 93       	push	r29
    23a8:	7c 01       	movw	r14, r24
    23aa:	e9 01       	movw	r28, r18
    23ac:	dd 23       	and	r29, r29
    23ae:	2c f4       	brge	.+10     	; 0x23ba <_ZN4UTFT9drawHLineEiii+0x1e>
    23b0:	62 0f       	add	r22, r18
    23b2:	73 1f       	adc	r23, r19
    23b4:	d1 95       	neg	r29
    23b6:	c1 95       	neg	r28
    23b8:	d1 09       	sbc	r29, r1
    23ba:	85 b3       	in	r24, 0x15	; 21
    23bc:	8d 7f       	andi	r24, 0xFD	; 253
    23be:	85 bb       	out	0x15, r24	; 21
    23c0:	9b 01       	movw	r18, r22
    23c2:	2c 0f       	add	r18, r28
    23c4:	3d 1f       	adc	r19, r29
    23c6:	8a 01       	movw	r16, r20
    23c8:	c7 01       	movw	r24, r14
    23ca:	0e 94 92 10 	call	0x2124	; 0x2124 <_ZN4UTFT5setXYEjjjj>
    23ce:	f7 01       	movw	r30, r14
    23d0:	80 81       	ld	r24, Z
    23d2:	82 bb       	out	0x12, r24	; 18
    23d4:	81 81       	ldd	r24, Z+1	; 0x01
    23d6:	8b bb       	out	0x1b, r24	; 27
    23d8:	be 01       	movw	r22, r28
    23da:	dd 0f       	add	r29, r29
    23dc:	88 0b       	sbc	r24, r24
    23de:	99 0b       	sbc	r25, r25
    23e0:	0e 94 e5 06 	call	0xdca	; 0xdca <fastfill>
    23e4:	8f ef       	ldi	r24, 0xFF	; 255
    23e6:	8b bb       	out	0x1b, r24	; 27
    23e8:	82 bb       	out	0x12, r24	; 18
    23ea:	85 b3       	in	r24, 0x15	; 21
    23ec:	82 60       	ori	r24, 0x02	; 2
    23ee:	85 bb       	out	0x15, r24	; 21
    23f0:	df 91       	pop	r29
    23f2:	cf 91       	pop	r28
    23f4:	1f 91       	pop	r17
    23f6:	0f 91       	pop	r16
    23f8:	ff 90       	pop	r15
    23fa:	ef 90       	pop	r14
    23fc:	08 95       	ret

000023fe <_ZN4UTFT9drawVLineEiii>:
    23fe:	ef 92       	push	r14
    2400:	ff 92       	push	r15
    2402:	0f 93       	push	r16
    2404:	1f 93       	push	r17
    2406:	cf 93       	push	r28
    2408:	df 93       	push	r29
    240a:	7c 01       	movw	r14, r24
    240c:	e9 01       	movw	r28, r18
    240e:	dd 23       	and	r29, r29
    2410:	2c f4       	brge	.+10     	; 0x241c <_ZN4UTFT9drawVLineEiii+0x1e>
    2412:	42 0f       	add	r20, r18
    2414:	53 1f       	adc	r21, r19
    2416:	d1 95       	neg	r29
    2418:	c1 95       	neg	r28
    241a:	d1 09       	sbc	r29, r1
    241c:	85 b3       	in	r24, 0x15	; 21
    241e:	8d 7f       	andi	r24, 0xFD	; 253
    2420:	85 bb       	out	0x15, r24	; 21
    2422:	8a 01       	movw	r16, r20
    2424:	0c 0f       	add	r16, r28
    2426:	1d 1f       	adc	r17, r29
    2428:	9b 01       	movw	r18, r22
    242a:	c7 01       	movw	r24, r14
    242c:	0e 94 92 10 	call	0x2124	; 0x2124 <_ZN4UTFT5setXYEjjjj>
    2430:	f7 01       	movw	r30, r14
    2432:	80 81       	ld	r24, Z
    2434:	82 bb       	out	0x12, r24	; 18
    2436:	81 81       	ldd	r24, Z+1	; 0x01
    2438:	8b bb       	out	0x1b, r24	; 27
    243a:	be 01       	movw	r22, r28
    243c:	dd 0f       	add	r29, r29
    243e:	88 0b       	sbc	r24, r24
    2440:	99 0b       	sbc	r25, r25
    2442:	0e 94 e5 06 	call	0xdca	; 0xdca <fastfill>
    2446:	8f ef       	ldi	r24, 0xFF	; 255
    2448:	8b bb       	out	0x1b, r24	; 27
    244a:	82 bb       	out	0x12, r24	; 18
    244c:	85 b3       	in	r24, 0x15	; 21
    244e:	82 60       	ori	r24, 0x02	; 2
    2450:	85 bb       	out	0x15, r24	; 21
    2452:	df 91       	pop	r29
    2454:	cf 91       	pop	r28
    2456:	1f 91       	pop	r17
    2458:	0f 91       	pop	r16
    245a:	ff 90       	pop	r15
    245c:	ef 90       	pop	r14
    245e:	08 95       	ret

00002460 <_ZN4UTFT8drawLineEiiii>:
    2460:	2f 92       	push	r2
    2462:	3f 92       	push	r3
    2464:	4f 92       	push	r4
    2466:	5f 92       	push	r5
    2468:	6f 92       	push	r6
    246a:	7f 92       	push	r7
    246c:	8f 92       	push	r8
    246e:	9f 92       	push	r9
    2470:	af 92       	push	r10
    2472:	bf 92       	push	r11
    2474:	cf 92       	push	r12
    2476:	df 92       	push	r13
    2478:	ef 92       	push	r14
    247a:	ff 92       	push	r15
    247c:	0f 93       	push	r16
    247e:	1f 93       	push	r17
    2480:	cf 93       	push	r28
    2482:	df 93       	push	r29
    2484:	3c 01       	movw	r6, r24
    2486:	5b 01       	movw	r10, r22
    2488:	ea 01       	movw	r28, r20
    248a:	49 01       	movw	r8, r18
    248c:	40 17       	cp	r20, r16
    248e:	51 07       	cpc	r21, r17
    2490:	29 f4       	brne	.+10     	; 0x249c <_ZN4UTFT8drawLineEiiii+0x3c>
    2492:	26 1b       	sub	r18, r22
    2494:	37 0b       	sbc	r19, r23
    2496:	0e 94 ce 11 	call	0x239c	; 0x239c <_ZN4UTFT9drawHLineEiii>
    249a:	42 c1       	rjmp	.+644    	; 0x2720 <_ZN4UTFT8drawLineEiiii+0x2c0>
    249c:	26 17       	cp	r18, r22
    249e:	37 07       	cpc	r19, r23
    24a0:	31 f4       	brne	.+12     	; 0x24ae <_ZN4UTFT8drawLineEiiii+0x4e>
    24a2:	98 01       	movw	r18, r16
    24a4:	24 1b       	sub	r18, r20
    24a6:	35 0b       	sbc	r19, r21
    24a8:	0e 94 ff 11 	call	0x23fe	; 0x23fe <_ZN4UTFT9drawVLineEiii>
    24ac:	39 c1       	rjmp	.+626    	; 0x2720 <_ZN4UTFT8drawLineEiiii+0x2c0>
    24ae:	dc 01       	movw	r26, r24
    24b0:	14 96       	adiw	r26, 0x04	; 4
    24b2:	8c 91       	ld	r24, X
    24b4:	14 97       	sbiw	r26, 0x04	; 4
    24b6:	81 30       	cpi	r24, 0x01	; 1
    24b8:	79 f4       	brne	.+30     	; 0x24d8 <_ZN4UTFT8drawLineEiiii+0x78>
    24ba:	19 96       	adiw	r26, 0x09	; 9
    24bc:	8d 91       	ld	r24, X+
    24be:	9d 91       	ld	r25, X+
    24c0:	0d 90       	ld	r0, X+
    24c2:	bc 91       	ld	r27, X
    24c4:	a0 2d       	mov	r26, r0
    24c6:	9c 01       	movw	r18, r24
    24c8:	26 1b       	sub	r18, r22
    24ca:	37 0b       	sbc	r19, r23
    24cc:	88 19       	sub	r24, r8
    24ce:	99 09       	sbc	r25, r9
    24d0:	48 01       	movw	r8, r16
    24d2:	8c 01       	movw	r16, r24
    24d4:	5a 01       	movw	r10, r20
    24d6:	e9 01       	movw	r28, r18
    24d8:	c4 01       	movw	r24, r8
    24da:	8a 19       	sub	r24, r10
    24dc:	9b 09       	sbc	r25, r11
    24de:	7c 01       	movw	r14, r24
    24e0:	22 f4       	brpl	.+8      	; 0x24ea <_ZN4UTFT8drawLineEiiii+0x8a>
    24e2:	ee 24       	eor	r14, r14
    24e4:	ff 24       	eor	r15, r15
    24e6:	e8 1a       	sub	r14, r24
    24e8:	f9 0a       	sbc	r15, r25
    24ea:	c8 01       	movw	r24, r16
    24ec:	8c 1b       	sub	r24, r28
    24ee:	9d 0b       	sbc	r25, r29
    24f0:	6c 01       	movw	r12, r24
    24f2:	22 f4       	brpl	.+8      	; 0x24fc <_ZN4UTFT8drawLineEiiii+0x9c>
    24f4:	cc 24       	eor	r12, r12
    24f6:	dd 24       	eor	r13, r13
    24f8:	c8 1a       	sub	r12, r24
    24fa:	d9 0a       	sbc	r13, r25
    24fc:	85 b3       	in	r24, 0x15	; 21
    24fe:	8d 7f       	andi	r24, 0xFD	; 253
    2500:	85 bb       	out	0x15, r24	; 21
    2502:	60 e0       	ldi	r22, 0x00	; 0
    2504:	7f ee       	ldi	r23, 0xEF	; 239
    2506:	84 e4       	ldi	r24, 0x44	; 68
    2508:	0e 94 42 07 	call	0xe84	; 0xe84 <LCD_Write_COM_DATA>
    250c:	60 e0       	ldi	r22, 0x00	; 0
    250e:	70 e0       	ldi	r23, 0x00	; 0
    2510:	85 e4       	ldi	r24, 0x45	; 69
    2512:	0e 94 42 07 	call	0xe84	; 0xe84 <LCD_Write_COM_DATA>
    2516:	6f e3       	ldi	r22, 0x3F	; 63
    2518:	71 e0       	ldi	r23, 0x01	; 1
    251a:	86 e4       	ldi	r24, 0x46	; 70
    251c:	0e 94 42 07 	call	0xe84	; 0xe84 <LCD_Write_COM_DATA>
    2520:	b5 01       	movw	r22, r10
    2522:	8e e4       	ldi	r24, 0x4E	; 78
    2524:	0e 94 42 07 	call	0xe84	; 0xe84 <LCD_Write_COM_DATA>
    2528:	be 01       	movw	r22, r28
    252a:	8f e4       	ldi	r24, 0x4F	; 79
    252c:	0e 94 42 07 	call	0xe84	; 0xe84 <LCD_Write_COM_DATA>
    2530:	ec 14       	cp	r14, r12
    2532:	fd 04       	cpc	r15, r13
    2534:	08 f0       	brcs	.+2      	; 0x2538 <_ZN4UTFT8drawLineEiiii+0xd8>
    2536:	79 c0       	rjmp	.+242    	; 0x262a <_ZN4UTFT8drawLineEiiii+0x1ca>
    2538:	c0 17       	cp	r28, r16
    253a:	d1 07       	cpc	r29, r17
    253c:	dc f5       	brge	.+118    	; 0x25b4 <_ZN4UTFT8drawLineEiiii+0x154>
    253e:	a8 14       	cp	r10, r8
    2540:	b9 04       	cpc	r11, r9
    2542:	e4 f4       	brge	.+56     	; 0x257c <_ZN4UTFT8drawLineEiiii+0x11c>
    2544:	68 e7       	ldi	r22, 0x78	; 120
    2546:	70 e6       	ldi	r23, 0x60	; 96
    2548:	81 e1       	ldi	r24, 0x11	; 17
    254a:	0e 94 42 07 	call	0xe84	; 0xe84 <LCD_Write_COM_DATA>
    254e:	82 e2       	ldi	r24, 0x22	; 34
    2550:	0e 94 2e 07 	call	0xe5c	; 0xe5c <LCD_Write_COM>
    2554:	85 b3       	in	r24, 0x15	; 21
    2556:	80 64       	ori	r24, 0x40	; 64
    2558:	85 bb       	out	0x15, r24	; 21
    255a:	d3 01       	movw	r26, r6
    255c:	11 96       	adiw	r26, 0x01	; 1
    255e:	ec 91       	ld	r30, X
    2560:	11 97       	sbiw	r26, 0x01	; 1
    2562:	8c 91       	ld	r24, X
    2564:	90 e0       	ldi	r25, 0x00	; 0
    2566:	98 2f       	mov	r25, r24
    2568:	88 27       	eor	r24, r24
    256a:	2c 2f       	mov	r18, r28
    256c:	3d 2f       	mov	r19, r29
    256e:	a4 01       	movw	r20, r8
    2570:	6a 2d       	mov	r22, r10
    2572:	7b 2d       	mov	r23, r11
    2574:	8e 2b       	or	r24, r30
    2576:	0e 94 53 07 	call	0xea6	; 0xea6 <fastlineAPP>
    257a:	cf c0       	rjmp	.+414    	; 0x271a <_ZN4UTFT8drawLineEiiii+0x2ba>
    257c:	68 e7       	ldi	r22, 0x78	; 120
    257e:	70 e6       	ldi	r23, 0x60	; 96
    2580:	81 e1       	ldi	r24, 0x11	; 17
    2582:	0e 94 42 07 	call	0xe84	; 0xe84 <LCD_Write_COM_DATA>
    2586:	82 e2       	ldi	r24, 0x22	; 34
    2588:	0e 94 2e 07 	call	0xe5c	; 0xe5c <LCD_Write_COM>
    258c:	85 b3       	in	r24, 0x15	; 21
    258e:	80 64       	ori	r24, 0x40	; 64
    2590:	85 bb       	out	0x15, r24	; 21
    2592:	d3 01       	movw	r26, r6
    2594:	11 96       	adiw	r26, 0x01	; 1
    2596:	ec 91       	ld	r30, X
    2598:	11 97       	sbiw	r26, 0x01	; 1
    259a:	8c 91       	ld	r24, X
    259c:	90 e0       	ldi	r25, 0x00	; 0
    259e:	98 2f       	mov	r25, r24
    25a0:	88 27       	eor	r24, r24
    25a2:	2c 2f       	mov	r18, r28
    25a4:	3d 2f       	mov	r19, r29
    25a6:	a4 01       	movw	r20, r8
    25a8:	6a 2d       	mov	r22, r10
    25aa:	7b 2d       	mov	r23, r11
    25ac:	8e 2b       	or	r24, r30
    25ae:	0e 94 df 07 	call	0xfbe	; 0xfbe <fastlineANP>
    25b2:	b3 c0       	rjmp	.+358    	; 0x271a <_ZN4UTFT8drawLineEiiii+0x2ba>
    25b4:	a8 14       	cp	r10, r8
    25b6:	b9 04       	cpc	r11, r9
    25b8:	e4 f4       	brge	.+56     	; 0x25f2 <_ZN4UTFT8drawLineEiiii+0x192>
    25ba:	68 e5       	ldi	r22, 0x58	; 88
    25bc:	70 e6       	ldi	r23, 0x60	; 96
    25be:	81 e1       	ldi	r24, 0x11	; 17
    25c0:	0e 94 42 07 	call	0xe84	; 0xe84 <LCD_Write_COM_DATA>
    25c4:	82 e2       	ldi	r24, 0x22	; 34
    25c6:	0e 94 2e 07 	call	0xe5c	; 0xe5c <LCD_Write_COM>
    25ca:	85 b3       	in	r24, 0x15	; 21
    25cc:	80 64       	ori	r24, 0x40	; 64
    25ce:	85 bb       	out	0x15, r24	; 21
    25d0:	d3 01       	movw	r26, r6
    25d2:	11 96       	adiw	r26, 0x01	; 1
    25d4:	ec 91       	ld	r30, X
    25d6:	11 97       	sbiw	r26, 0x01	; 1
    25d8:	8c 91       	ld	r24, X
    25da:	90 e0       	ldi	r25, 0x00	; 0
    25dc:	98 2f       	mov	r25, r24
    25de:	88 27       	eor	r24, r24
    25e0:	2c 2f       	mov	r18, r28
    25e2:	3d 2f       	mov	r19, r29
    25e4:	a4 01       	movw	r20, r8
    25e6:	6a 2d       	mov	r22, r10
    25e8:	7b 2d       	mov	r23, r11
    25ea:	8e 2b       	or	r24, r30
    25ec:	0e 94 99 07 	call	0xf32	; 0xf32 <fastlineAPN>
    25f0:	94 c0       	rjmp	.+296    	; 0x271a <_ZN4UTFT8drawLineEiiii+0x2ba>
    25f2:	68 e5       	ldi	r22, 0x58	; 88
    25f4:	70 e6       	ldi	r23, 0x60	; 96
    25f6:	81 e1       	ldi	r24, 0x11	; 17
    25f8:	0e 94 42 07 	call	0xe84	; 0xe84 <LCD_Write_COM_DATA>
    25fc:	82 e2       	ldi	r24, 0x22	; 34
    25fe:	0e 94 2e 07 	call	0xe5c	; 0xe5c <LCD_Write_COM>
    2602:	85 b3       	in	r24, 0x15	; 21
    2604:	80 64       	ori	r24, 0x40	; 64
    2606:	85 bb       	out	0x15, r24	; 21
    2608:	d3 01       	movw	r26, r6
    260a:	11 96       	adiw	r26, 0x01	; 1
    260c:	ec 91       	ld	r30, X
    260e:	11 97       	sbiw	r26, 0x01	; 1
    2610:	8c 91       	ld	r24, X
    2612:	90 e0       	ldi	r25, 0x00	; 0
    2614:	98 2f       	mov	r25, r24
    2616:	88 27       	eor	r24, r24
    2618:	2c 2f       	mov	r18, r28
    261a:	3d 2f       	mov	r19, r29
    261c:	a4 01       	movw	r20, r8
    261e:	6a 2d       	mov	r22, r10
    2620:	7b 2d       	mov	r23, r11
    2622:	8e 2b       	or	r24, r30
    2624:	0e 94 25 08 	call	0x104a	; 0x104a <fastlineANN>
    2628:	78 c0       	rjmp	.+240    	; 0x271a <_ZN4UTFT8drawLineEiiii+0x2ba>
    262a:	c0 17       	cp	r28, r16
    262c:	d1 07       	cpc	r29, r17
    262e:	dc f5       	brge	.+118    	; 0x26a6 <_ZN4UTFT8drawLineEiiii+0x246>
    2630:	a8 14       	cp	r10, r8
    2632:	b9 04       	cpc	r11, r9
    2634:	e4 f4       	brge	.+56     	; 0x266e <_ZN4UTFT8drawLineEiiii+0x20e>
    2636:	60 e7       	ldi	r22, 0x70	; 112
    2638:	70 e6       	ldi	r23, 0x60	; 96
    263a:	81 e1       	ldi	r24, 0x11	; 17
    263c:	0e 94 42 07 	call	0xe84	; 0xe84 <LCD_Write_COM_DATA>
    2640:	82 e2       	ldi	r24, 0x22	; 34
    2642:	0e 94 2e 07 	call	0xe5c	; 0xe5c <LCD_Write_COM>
    2646:	85 b3       	in	r24, 0x15	; 21
    2648:	80 64       	ori	r24, 0x40	; 64
    264a:	85 bb       	out	0x15, r24	; 21
    264c:	d3 01       	movw	r26, r6
    264e:	11 96       	adiw	r26, 0x01	; 1
    2650:	ec 91       	ld	r30, X
    2652:	11 97       	sbiw	r26, 0x01	; 1
    2654:	8c 91       	ld	r24, X
    2656:	90 e0       	ldi	r25, 0x00	; 0
    2658:	98 2f       	mov	r25, r24
    265a:	88 27       	eor	r24, r24
    265c:	2c 2f       	mov	r18, r28
    265e:	3d 2f       	mov	r19, r29
    2660:	a4 01       	movw	r20, r8
    2662:	6a 2d       	mov	r22, r10
    2664:	7b 2d       	mov	r23, r11
    2666:	8e 2b       	or	r24, r30
    2668:	0e 94 6b 08 	call	0x10d6	; 0x10d6 <fastlineBPP>
    266c:	56 c0       	rjmp	.+172    	; 0x271a <_ZN4UTFT8drawLineEiiii+0x2ba>
    266e:	60 e6       	ldi	r22, 0x60	; 96
    2670:	70 e6       	ldi	r23, 0x60	; 96
    2672:	81 e1       	ldi	r24, 0x11	; 17
    2674:	0e 94 42 07 	call	0xe84	; 0xe84 <LCD_Write_COM_DATA>
    2678:	82 e2       	ldi	r24, 0x22	; 34
    267a:	0e 94 2e 07 	call	0xe5c	; 0xe5c <LCD_Write_COM>
    267e:	85 b3       	in	r24, 0x15	; 21
    2680:	80 64       	ori	r24, 0x40	; 64
    2682:	85 bb       	out	0x15, r24	; 21
    2684:	d3 01       	movw	r26, r6
    2686:	11 96       	adiw	r26, 0x01	; 1
    2688:	ec 91       	ld	r30, X
    268a:	11 97       	sbiw	r26, 0x01	; 1
    268c:	8c 91       	ld	r24, X
    268e:	90 e0       	ldi	r25, 0x00	; 0
    2690:	98 2f       	mov	r25, r24
    2692:	88 27       	eor	r24, r24
    2694:	2c 2f       	mov	r18, r28
    2696:	3d 2f       	mov	r19, r29
    2698:	a4 01       	movw	r20, r8
    269a:	6a 2d       	mov	r22, r10
    269c:	7b 2d       	mov	r23, r11
    269e:	8e 2b       	or	r24, r30
    26a0:	0e 94 f7 08 	call	0x11ee	; 0x11ee <fastlineBNP>
    26a4:	3a c0       	rjmp	.+116    	; 0x271a <_ZN4UTFT8drawLineEiiii+0x2ba>
    26a6:	a8 14       	cp	r10, r8
    26a8:	b9 04       	cpc	r11, r9
    26aa:	e4 f4       	brge	.+56     	; 0x26e4 <_ZN4UTFT8drawLineEiiii+0x284>
    26ac:	60 e5       	ldi	r22, 0x50	; 80
    26ae:	70 e6       	ldi	r23, 0x60	; 96
    26b0:	81 e1       	ldi	r24, 0x11	; 17
    26b2:	0e 94 42 07 	call	0xe84	; 0xe84 <LCD_Write_COM_DATA>
    26b6:	82 e2       	ldi	r24, 0x22	; 34
    26b8:	0e 94 2e 07 	call	0xe5c	; 0xe5c <LCD_Write_COM>
    26bc:	85 b3       	in	r24, 0x15	; 21
    26be:	80 64       	ori	r24, 0x40	; 64
    26c0:	85 bb       	out	0x15, r24	; 21
    26c2:	d3 01       	movw	r26, r6
    26c4:	11 96       	adiw	r26, 0x01	; 1
    26c6:	ec 91       	ld	r30, X
    26c8:	11 97       	sbiw	r26, 0x01	; 1
    26ca:	8c 91       	ld	r24, X
    26cc:	90 e0       	ldi	r25, 0x00	; 0
    26ce:	98 2f       	mov	r25, r24
    26d0:	88 27       	eor	r24, r24
    26d2:	2c 2f       	mov	r18, r28
    26d4:	3d 2f       	mov	r19, r29
    26d6:	a4 01       	movw	r20, r8
    26d8:	6a 2d       	mov	r22, r10
    26da:	7b 2d       	mov	r23, r11
    26dc:	8e 2b       	or	r24, r30
    26de:	0e 94 b1 08 	call	0x1162	; 0x1162 <fastlineBPN>
    26e2:	1b c0       	rjmp	.+54     	; 0x271a <_ZN4UTFT8drawLineEiiii+0x2ba>
    26e4:	60 e6       	ldi	r22, 0x60	; 96
    26e6:	70 e6       	ldi	r23, 0x60	; 96
    26e8:	81 e1       	ldi	r24, 0x11	; 17
    26ea:	0e 94 42 07 	call	0xe84	; 0xe84 <LCD_Write_COM_DATA>
    26ee:	82 e2       	ldi	r24, 0x22	; 34
    26f0:	0e 94 2e 07 	call	0xe5c	; 0xe5c <LCD_Write_COM>
    26f4:	85 b3       	in	r24, 0x15	; 21
    26f6:	80 64       	ori	r24, 0x40	; 64
    26f8:	85 bb       	out	0x15, r24	; 21
    26fa:	d3 01       	movw	r26, r6
    26fc:	11 96       	adiw	r26, 0x01	; 1
    26fe:	ec 91       	ld	r30, X
    2700:	11 97       	sbiw	r26, 0x01	; 1
    2702:	8c 91       	ld	r24, X
    2704:	90 e0       	ldi	r25, 0x00	; 0
    2706:	98 2f       	mov	r25, r24
    2708:	88 27       	eor	r24, r24
    270a:	2c 2f       	mov	r18, r28
    270c:	3d 2f       	mov	r19, r29
    270e:	a4 01       	movw	r20, r8
    2710:	6a 2d       	mov	r22, r10
    2712:	7b 2d       	mov	r23, r11
    2714:	8e 2b       	or	r24, r30
    2716:	0e 94 3d 09 	call	0x127a	; 0x127a <fastlineBNN>
    271a:	85 b3       	in	r24, 0x15	; 21
    271c:	82 60       	ori	r24, 0x02	; 2
    271e:	85 bb       	out	0x15, r24	; 21
    2720:	df 91       	pop	r29
    2722:	cf 91       	pop	r28
    2724:	1f 91       	pop	r17
    2726:	0f 91       	pop	r16
    2728:	ff 90       	pop	r15
    272a:	ef 90       	pop	r14
    272c:	df 90       	pop	r13
    272e:	cf 90       	pop	r12
    2730:	bf 90       	pop	r11
    2732:	af 90       	pop	r10
    2734:	9f 90       	pop	r9
    2736:	8f 90       	pop	r8
    2738:	7f 90       	pop	r7
    273a:	6f 90       	pop	r6
    273c:	5f 90       	pop	r5
    273e:	4f 90       	pop	r4
    2740:	3f 90       	pop	r3
    2742:	2f 90       	pop	r2
    2744:	08 95       	ret

00002746 <_ZN4UTFT9printCharEhii>:
    2746:	af 92       	push	r10
    2748:	bf 92       	push	r11
    274a:	cf 92       	push	r12
    274c:	df 92       	push	r13
    274e:	ef 92       	push	r14
    2750:	ff 92       	push	r15
    2752:	0f 93       	push	r16
    2754:	1f 93       	push	r17
    2756:	cf 93       	push	r28
    2758:	df 93       	push	r29
    275a:	ec 01       	movw	r28, r24
    275c:	7a 01       	movw	r14, r20
    275e:	89 01       	movw	r16, r18
    2760:	85 b3       	in	r24, 0x15	; 21
    2762:	8d 7f       	andi	r24, 0xFD	; 253
    2764:	85 bb       	out	0x15, r24	; 21
    2766:	8c 81       	ldd	r24, Y+4	; 0x04
    2768:	81 11       	cpse	r24, r1
    276a:	69 c0       	rjmp	.+210    	; 0x283e <_ZN4UTFT9printCharEhii+0xf8>
    276c:	29 89       	ldd	r18, Y+17	; 0x11
    276e:	86 2f       	mov	r24, r22
    2770:	90 e0       	ldi	r25, 0x00	; 0
    2772:	82 1b       	sub	r24, r18
    2774:	91 09       	sbc	r25, r1
    2776:	4f 85       	ldd	r20, Y+15	; 0x0f
    2778:	54 2f       	mov	r21, r20
    277a:	56 95       	lsr	r21
    277c:	56 95       	lsr	r21
    277e:	56 95       	lsr	r21
    2780:	28 89       	ldd	r18, Y+16	; 0x10
    2782:	30 e0       	ldi	r19, 0x00	; 0
    2784:	52 9f       	mul	r21, r18
    2786:	b0 01       	movw	r22, r0
    2788:	53 9f       	mul	r21, r19
    278a:	70 0d       	add	r23, r0
    278c:	11 24       	eor	r1, r1
    278e:	86 9f       	mul	r24, r22
    2790:	60 01       	movw	r12, r0
    2792:	87 9f       	mul	r24, r23
    2794:	d0 0c       	add	r13, r0
    2796:	96 9f       	mul	r25, r22
    2798:	d0 0c       	add	r13, r0
    279a:	11 24       	eor	r1, r1
    279c:	84 e0       	ldi	r24, 0x04	; 4
    279e:	c8 0e       	add	r12, r24
    27a0:	d1 1c       	adc	r13, r1
    27a2:	c7 01       	movw	r24, r14
    27a4:	84 0f       	add	r24, r20
    27a6:	91 1d       	adc	r25, r1
    27a8:	20 0f       	add	r18, r16
    27aa:	31 1f       	adc	r19, r17
    27ac:	59 01       	movw	r10, r18
    27ae:	41 e0       	ldi	r20, 0x01	; 1
    27b0:	a4 1a       	sub	r10, r20
    27b2:	b1 08       	sbc	r11, r1
    27b4:	60 e0       	ldi	r22, 0x00	; 0
    27b6:	70 e0       	ldi	r23, 0x00	; 0
    27b8:	7f ef       	ldi	r23, 0xFF	; 255
    27ba:	78 0f       	add	r23, r24
    27bc:	6e 0d       	add	r22, r14
    27be:	7f 1d       	adc	r23, r15
    27c0:	84 e4       	ldi	r24, 0x44	; 68
    27c2:	0e 94 42 07 	call	0xe84	; 0xe84 <LCD_Write_COM_DATA>
    27c6:	b8 01       	movw	r22, r16
    27c8:	85 e4       	ldi	r24, 0x45	; 69
    27ca:	0e 94 42 07 	call	0xe84	; 0xe84 <LCD_Write_COM_DATA>
    27ce:	b5 01       	movw	r22, r10
    27d0:	86 e4       	ldi	r24, 0x46	; 70
    27d2:	0e 94 42 07 	call	0xe84	; 0xe84 <LCD_Write_COM_DATA>
    27d6:	b7 01       	movw	r22, r14
    27d8:	8e e4       	ldi	r24, 0x4E	; 78
    27da:	0e 94 42 07 	call	0xe84	; 0xe84 <LCD_Write_COM_DATA>
    27de:	b8 01       	movw	r22, r16
    27e0:	8f e4       	ldi	r24, 0x4F	; 79
    27e2:	0e 94 42 07 	call	0xe84	; 0xe84 <LCD_Write_COM_DATA>
    27e6:	60 e7       	ldi	r22, 0x70	; 112
    27e8:	70 e6       	ldi	r23, 0x60	; 96
    27ea:	81 e1       	ldi	r24, 0x11	; 17
    27ec:	0e 94 42 07 	call	0xe84	; 0xe84 <LCD_Write_COM_DATA>
    27f0:	82 e2       	ldi	r24, 0x22	; 34
    27f2:	0e 94 2e 07 	call	0xe5c	; 0xe5c <LCD_Write_COM>
    27f6:	85 b3       	in	r24, 0x15	; 21
    27f8:	80 64       	ori	r24, 0x40	; 64
    27fa:	85 bb       	out	0x15, r24	; 21
    27fc:	2a 81       	ldd	r18, Y+2	; 0x02
    27fe:	30 e0       	ldi	r19, 0x00	; 0
    2800:	32 2f       	mov	r19, r18
    2802:	22 27       	eor	r18, r18
    2804:	8b 81       	ldd	r24, Y+3	; 0x03
    2806:	28 2b       	or	r18, r24
    2808:	48 81       	ld	r20, Y
    280a:	50 e0       	ldi	r21, 0x00	; 0
    280c:	54 2f       	mov	r21, r20
    280e:	44 27       	eor	r20, r20
    2810:	89 81       	ldd	r24, Y+1	; 0x01
    2812:	48 2b       	or	r20, r24
    2814:	6d 85       	ldd	r22, Y+13	; 0x0d
    2816:	7e 85       	ldd	r23, Y+14	; 0x0e
    2818:	6c 0d       	add	r22, r12
    281a:	7d 1d       	adc	r23, r13
    281c:	88 89       	ldd	r24, Y+16	; 0x10
    281e:	9f 85       	ldd	r25, Y+15	; 0x0f
    2820:	89 9f       	mul	r24, r25
    2822:	c0 01       	movw	r24, r0
    2824:	11 24       	eor	r1, r1
    2826:	99 23       	and	r25, r25
    2828:	0c f4       	brge	.+2      	; 0x282c <_ZN4UTFT9printCharEhii+0xe6>
    282a:	07 96       	adiw	r24, 0x07	; 7
    282c:	95 95       	asr	r25
    282e:	87 95       	ror	r24
    2830:	95 95       	asr	r25
    2832:	87 95       	ror	r24
    2834:	95 95       	asr	r25
    2836:	87 95       	ror	r24
    2838:	0e 94 56 06 	call	0xcac	; 0xcac <fastbitmap_1bit>
    283c:	6f c0       	rjmp	.+222    	; 0x291c <_ZN4UTFT9printCharEhii+0x1d6>
    283e:	29 89       	ldd	r18, Y+17	; 0x11
    2840:	86 2f       	mov	r24, r22
    2842:	90 e0       	ldi	r25, 0x00	; 0
    2844:	82 1b       	sub	r24, r18
    2846:	91 09       	sbc	r25, r1
    2848:	4f 85       	ldd	r20, Y+15	; 0x0f
    284a:	54 2f       	mov	r21, r20
    284c:	56 95       	lsr	r21
    284e:	56 95       	lsr	r21
    2850:	56 95       	lsr	r21
    2852:	28 89       	ldd	r18, Y+16	; 0x10
    2854:	30 e0       	ldi	r19, 0x00	; 0
    2856:	52 9f       	mul	r21, r18
    2858:	b0 01       	movw	r22, r0
    285a:	53 9f       	mul	r21, r19
    285c:	70 0d       	add	r23, r0
    285e:	11 24       	eor	r1, r1
    2860:	86 9f       	mul	r24, r22
    2862:	60 01       	movw	r12, r0
    2864:	87 9f       	mul	r24, r23
    2866:	d0 0c       	add	r13, r0
    2868:	96 9f       	mul	r25, r22
    286a:	d0 0c       	add	r13, r0
    286c:	11 24       	eor	r1, r1
    286e:	84 e0       	ldi	r24, 0x04	; 4
    2870:	c8 0e       	add	r12, r24
    2872:	d1 1c       	adc	r13, r1
    2874:	c7 01       	movw	r24, r14
    2876:	84 0f       	add	r24, r20
    2878:	91 1d       	adc	r25, r1
    287a:	01 97       	sbiw	r24, 0x01	; 1
    287c:	20 0f       	add	r18, r16
    287e:	31 1f       	adc	r19, r17
    2880:	49 85       	ldd	r20, Y+9	; 0x09
    2882:	5a 85       	ldd	r21, Y+10	; 0x0a
    2884:	6b 85       	ldd	r22, Y+11	; 0x0b
    2886:	7c 85       	ldd	r23, Y+12	; 0x0c
    2888:	5a 01       	movw	r10, r20
    288a:	ae 18       	sub	r10, r14
    288c:	bf 08       	sbc	r11, r15
    288e:	7a 01       	movw	r14, r20
    2890:	e8 1a       	sub	r14, r24
    2892:	f9 0a       	sbc	r15, r25
    2894:	60 e0       	ldi	r22, 0x00	; 0
    2896:	70 e0       	ldi	r23, 0x00	; 0
    2898:	7f ef       	ldi	r23, 0xFF	; 255
    289a:	72 0f       	add	r23, r18
    289c:	60 0f       	add	r22, r16
    289e:	71 1f       	adc	r23, r17
    28a0:	84 e4       	ldi	r24, 0x44	; 68
    28a2:	0e 94 42 07 	call	0xe84	; 0xe84 <LCD_Write_COM_DATA>
    28a6:	b7 01       	movw	r22, r14
    28a8:	85 e4       	ldi	r24, 0x45	; 69
    28aa:	0e 94 42 07 	call	0xe84	; 0xe84 <LCD_Write_COM_DATA>
    28ae:	b5 01       	movw	r22, r10
    28b0:	86 e4       	ldi	r24, 0x46	; 70
    28b2:	0e 94 42 07 	call	0xe84	; 0xe84 <LCD_Write_COM_DATA>
    28b6:	b8 01       	movw	r22, r16
    28b8:	8e e4       	ldi	r24, 0x4E	; 78
    28ba:	0e 94 42 07 	call	0xe84	; 0xe84 <LCD_Write_COM_DATA>
    28be:	b5 01       	movw	r22, r10
    28c0:	8f e4       	ldi	r24, 0x4F	; 79
    28c2:	0e 94 42 07 	call	0xe84	; 0xe84 <LCD_Write_COM_DATA>
    28c6:	68 e5       	ldi	r22, 0x58	; 88
    28c8:	70 e6       	ldi	r23, 0x60	; 96
    28ca:	81 e1       	ldi	r24, 0x11	; 17
    28cc:	0e 94 42 07 	call	0xe84	; 0xe84 <LCD_Write_COM_DATA>
    28d0:	82 e2       	ldi	r24, 0x22	; 34
    28d2:	0e 94 2e 07 	call	0xe5c	; 0xe5c <LCD_Write_COM>
    28d6:	85 b3       	in	r24, 0x15	; 21
    28d8:	80 64       	ori	r24, 0x40	; 64
    28da:	85 bb       	out	0x15, r24	; 21
    28dc:	2a 81       	ldd	r18, Y+2	; 0x02
    28de:	30 e0       	ldi	r19, 0x00	; 0
    28e0:	32 2f       	mov	r19, r18
    28e2:	22 27       	eor	r18, r18
    28e4:	8b 81       	ldd	r24, Y+3	; 0x03
    28e6:	28 2b       	or	r18, r24
    28e8:	48 81       	ld	r20, Y
    28ea:	50 e0       	ldi	r21, 0x00	; 0
    28ec:	54 2f       	mov	r21, r20
    28ee:	44 27       	eor	r20, r20
    28f0:	89 81       	ldd	r24, Y+1	; 0x01
    28f2:	48 2b       	or	r20, r24
    28f4:	6d 85       	ldd	r22, Y+13	; 0x0d
    28f6:	7e 85       	ldd	r23, Y+14	; 0x0e
    28f8:	6c 0d       	add	r22, r12
    28fa:	7d 1d       	adc	r23, r13
    28fc:	88 89       	ldd	r24, Y+16	; 0x10
    28fe:	9f 85       	ldd	r25, Y+15	; 0x0f
    2900:	89 9f       	mul	r24, r25
    2902:	c0 01       	movw	r24, r0
    2904:	11 24       	eor	r1, r1
    2906:	99 23       	and	r25, r25
    2908:	0c f4       	brge	.+2      	; 0x290c <_ZN4UTFT9printCharEhii+0x1c6>
    290a:	07 96       	adiw	r24, 0x07	; 7
    290c:	95 95       	asr	r25
    290e:	87 95       	ror	r24
    2910:	95 95       	asr	r25
    2912:	87 95       	ror	r24
    2914:	95 95       	asr	r25
    2916:	87 95       	ror	r24
    2918:	0e 94 56 06 	call	0xcac	; 0xcac <fastbitmap_1bit>
    291c:	85 b3       	in	r24, 0x15	; 21
    291e:	82 60       	ori	r24, 0x02	; 2
    2920:	85 bb       	out	0x15, r24	; 21
    2922:	df 91       	pop	r29
    2924:	cf 91       	pop	r28
    2926:	1f 91       	pop	r17
    2928:	0f 91       	pop	r16
    292a:	ff 90       	pop	r15
    292c:	ef 90       	pop	r14
    292e:	df 90       	pop	r13
    2930:	cf 90       	pop	r12
    2932:	bf 90       	pop	r11
    2934:	af 90       	pop	r10
    2936:	08 95       	ret

00002938 <_ZN4UTFT10rotateCharEhiiii>:
    2938:	2f 92       	push	r2
    293a:	3f 92       	push	r3
    293c:	4f 92       	push	r4
    293e:	5f 92       	push	r5
    2940:	6f 92       	push	r6
    2942:	7f 92       	push	r7
    2944:	8f 92       	push	r8
    2946:	9f 92       	push	r9
    2948:	af 92       	push	r10
    294a:	bf 92       	push	r11
    294c:	cf 92       	push	r12
    294e:	df 92       	push	r13
    2950:	ef 92       	push	r14
    2952:	ff 92       	push	r15
    2954:	0f 93       	push	r16
    2956:	1f 93       	push	r17
    2958:	cf 93       	push	r28
    295a:	df 93       	push	r29
    295c:	cd b7       	in	r28, 0x3d	; 61
    295e:	de b7       	in	r29, 0x3e	; 62
    2960:	6b 97       	sbiw	r28, 0x1b	; 27
    2962:	0f b6       	in	r0, 0x3f	; 63
    2964:	f8 94       	cli
    2966:	de bf       	out	0x3e, r29	; 62
    2968:	0f be       	out	0x3f, r0	; 63
    296a:	cd bf       	out	0x3d, r28	; 61
    296c:	5c 01       	movw	r10, r24
    296e:	69 83       	std	Y+1, r22	; 0x01
    2970:	3a 01       	movw	r6, r20
    2972:	49 01       	movw	r8, r18
    2974:	1f 8b       	std	Y+23, r17	; 0x17
    2976:	0e 8b       	std	Y+22, r16	; 0x16
    2978:	b7 01       	movw	r22, r14
    297a:	ff 0c       	add	r15, r15
    297c:	88 0b       	sbc	r24, r24
    297e:	99 0b       	sbc	r25, r25
    2980:	0e 94 ab 17 	call	0x2f56	; 0x2f56 <__floatsisf>
    2984:	29 e2       	ldi	r18, 0x29	; 41
    2986:	3c e5       	ldi	r19, 0x5C	; 92
    2988:	4f e8       	ldi	r20, 0x8F	; 143
    298a:	5c e3       	ldi	r21, 0x3C	; 60
    298c:	0e 94 76 18 	call	0x30ec	; 0x30ec <__mulsf3>
    2990:	69 8b       	std	Y+17, r22	; 0x11
    2992:	7a 8b       	std	Y+18, r23	; 0x12
    2994:	8b 8b       	std	Y+19, r24	; 0x13
    2996:	9c 8b       	std	Y+20, r25	; 0x14
    2998:	85 b3       	in	r24, 0x15	; 21
    299a:	8d 7f       	andi	r24, 0xFD	; 253
    299c:	85 bb       	out	0x15, r24	; 21
    299e:	d5 01       	movw	r26, r10
    29a0:	51 96       	adiw	r26, 0x11	; 17
    29a2:	8c 91       	ld	r24, X
    29a4:	b9 81       	ldd	r27, Y+1	; 0x01
    29a6:	2b 2f       	mov	r18, r27
    29a8:	30 e0       	ldi	r19, 0x00	; 0
    29aa:	28 1b       	sub	r18, r24
    29ac:	31 09       	sbc	r19, r1
    29ae:	f5 01       	movw	r30, r10
    29b0:	87 85       	ldd	r24, Z+15	; 0x0f
    29b2:	86 95       	lsr	r24
    29b4:	86 95       	lsr	r24
    29b6:	86 95       	lsr	r24
    29b8:	90 89       	ldd	r25, Z+16	; 0x10
    29ba:	89 9f       	mul	r24, r25
    29bc:	c0 01       	movw	r24, r0
    29be:	11 24       	eor	r1, r1
    29c0:	28 9f       	mul	r18, r24
    29c2:	a0 01       	movw	r20, r0
    29c4:	29 9f       	mul	r18, r25
    29c6:	50 0d       	add	r21, r0
    29c8:	38 9f       	mul	r19, r24
    29ca:	50 0d       	add	r21, r0
    29cc:	11 24       	eor	r1, r1
    29ce:	9a 01       	movw	r18, r20
    29d0:	2c 5f       	subi	r18, 0xFC	; 252
    29d2:	3f 4f       	sbci	r19, 0xFF	; 255
    29d4:	39 8f       	std	Y+25, r19	; 0x19
    29d6:	28 8f       	std	Y+24, r18	; 0x18
    29d8:	1d 8a       	std	Y+21, r1	; 0x15
    29da:	d5 01       	movw	r26, r10
    29dc:	50 96       	adiw	r26, 0x10	; 16
    29de:	8c 91       	ld	r24, X
    29e0:	bd 89       	ldd	r27, Y+21	; 0x15
    29e2:	b8 17       	cp	r27, r24
    29e4:	08 f0       	brcs	.+2      	; 0x29e8 <_ZN4UTFT10rotateCharEhiiii+0xb0>
    29e6:	fb c0       	rjmp	.+502    	; 0x2bde <_ZN4UTFT10rotateCharEhiiii+0x2a6>
    29e8:	41 2c       	mov	r4, r1
    29ea:	51 2c       	mov	r5, r1
    29ec:	f5 01       	movw	r30, r10
    29ee:	87 85       	ldd	r24, Z+15	; 0x0f
    29f0:	86 95       	lsr	r24
    29f2:	86 95       	lsr	r24
    29f4:	86 95       	lsr	r24
    29f6:	28 2f       	mov	r18, r24
    29f8:	30 e0       	ldi	r19, 0x00	; 0
    29fa:	42 16       	cp	r4, r18
    29fc:	53 06       	cpc	r5, r19
    29fe:	0c f0       	brlt	.+2      	; 0x2a02 <_ZN4UTFT10rotateCharEhiiii+0xca>
    2a00:	e4 c0       	rjmp	.+456    	; 0x2bca <_ZN4UTFT10rotateCharEhiiii+0x292>
    2a02:	05 84       	ldd	r0, Z+13	; 0x0d
    2a04:	f6 85       	ldd	r31, Z+14	; 0x0e
    2a06:	e0 2d       	mov	r30, r0
    2a08:	88 8d       	ldd	r24, Y+24	; 0x18
    2a0a:	99 8d       	ldd	r25, Y+25	; 0x19
    2a0c:	84 0d       	add	r24, r4
    2a0e:	95 1d       	adc	r25, r5
    2a10:	e8 0f       	add	r30, r24
    2a12:	f9 1f       	adc	r31, r25
    2a14:	24 90       	lpm	r2, Z
    2a16:	31 2c       	mov	r3, r1
    2a18:	3a 8e       	std	Y+26, r3	; 0x1a
    2a1a:	2b 8e       	std	Y+27, r2	; 0x1b
    2a1c:	fa 8d       	ldd	r31, Y+26	; 0x1a
    2a1e:	f8 30       	cpi	r31, 0x08	; 8
    2a20:	08 f0       	brcs	.+2      	; 0x2a24 <_ZN4UTFT10rotateCharEhiiii+0xec>
    2a22:	cf c0       	rjmp	.+414    	; 0x2bc2 <_ZN4UTFT10rotateCharEhiiii+0x28a>
    2a24:	2f 2e       	mov	r2, r31
    2a26:	31 2c       	mov	r3, r1
    2a28:	b2 01       	movw	r22, r4
    2a2a:	66 0f       	add	r22, r22
    2a2c:	77 1f       	adc	r23, r23
    2a2e:	66 0f       	add	r22, r22
    2a30:	77 1f       	adc	r23, r23
    2a32:	66 0f       	add	r22, r22
    2a34:	77 1f       	adc	r23, r23
    2a36:	62 0d       	add	r22, r2
    2a38:	73 1d       	adc	r23, r3
    2a3a:	d5 01       	movw	r26, r10
    2a3c:	1f 96       	adiw	r26, 0x0f	; 15
    2a3e:	2c 91       	ld	r18, X
    2a40:	ee 89       	ldd	r30, Y+22	; 0x16
    2a42:	ff 89       	ldd	r31, Y+23	; 0x17
    2a44:	2e 9f       	mul	r18, r30
    2a46:	c0 01       	movw	r24, r0
    2a48:	2f 9f       	mul	r18, r31
    2a4a:	90 0d       	add	r25, r0
    2a4c:	11 24       	eor	r1, r1
    2a4e:	68 0f       	add	r22, r24
    2a50:	79 1f       	adc	r23, r25
    2a52:	07 2e       	mov	r0, r23
    2a54:	00 0c       	add	r0, r0
    2a56:	88 0b       	sbc	r24, r24
    2a58:	99 0b       	sbc	r25, r25
    2a5a:	0e 94 ab 17 	call	0x2f56	; 0x2f56 <__floatsisf>
    2a5e:	69 83       	std	Y+1, r22	; 0x01
    2a60:	7a 83       	std	Y+2, r23	; 0x02
    2a62:	8b 83       	std	Y+3, r24	; 0x03
    2a64:	9c 83       	std	Y+4, r25	; 0x04
    2a66:	69 89       	ldd	r22, Y+17	; 0x11
    2a68:	7a 89       	ldd	r23, Y+18	; 0x12
    2a6a:	8b 89       	ldd	r24, Y+19	; 0x13
    2a6c:	9c 89       	ldd	r25, Y+20	; 0x14
    2a6e:	0e 94 6e 17 	call	0x2edc	; 0x2edc <cos>
    2a72:	6d 83       	std	Y+5, r22	; 0x05
    2a74:	7e 83       	std	Y+6, r23	; 0x06
    2a76:	8f 83       	std	Y+7, r24	; 0x07
    2a78:	98 87       	std	Y+8, r25	; 0x08
    2a7a:	9b 01       	movw	r18, r22
    2a7c:	ac 01       	movw	r20, r24
    2a7e:	69 81       	ldd	r22, Y+1	; 0x01
    2a80:	7a 81       	ldd	r23, Y+2	; 0x02
    2a82:	8b 81       	ldd	r24, Y+3	; 0x03
    2a84:	9c 81       	ldd	r25, Y+4	; 0x04
    2a86:	0e 94 76 18 	call	0x30ec	; 0x30ec <__mulsf3>
    2a8a:	6b 01       	movw	r12, r22
    2a8c:	7c 01       	movw	r14, r24
    2a8e:	fd 89       	ldd	r31, Y+21	; 0x15
    2a90:	6f 2f       	mov	r22, r31
    2a92:	70 e0       	ldi	r23, 0x00	; 0
    2a94:	80 e0       	ldi	r24, 0x00	; 0
    2a96:	90 e0       	ldi	r25, 0x00	; 0
    2a98:	0e 94 ab 17 	call	0x2f56	; 0x2f56 <__floatsisf>
    2a9c:	69 87       	std	Y+9, r22	; 0x09
    2a9e:	7a 87       	std	Y+10, r23	; 0x0a
    2aa0:	8b 87       	std	Y+11, r24	; 0x0b
    2aa2:	9c 87       	std	Y+12, r25	; 0x0c
    2aa4:	69 89       	ldd	r22, Y+17	; 0x11
    2aa6:	7a 89       	ldd	r23, Y+18	; 0x12
    2aa8:	8b 89       	ldd	r24, Y+19	; 0x13
    2aaa:	9c 89       	ldd	r25, Y+20	; 0x14
    2aac:	0e 94 e3 18 	call	0x31c6	; 0x31c6 <sin>
    2ab0:	6d 87       	std	Y+13, r22	; 0x0d
    2ab2:	7e 87       	std	Y+14, r23	; 0x0e
    2ab4:	8f 87       	std	Y+15, r24	; 0x0f
    2ab6:	98 8b       	std	Y+16, r25	; 0x10
    2ab8:	9b 01       	movw	r18, r22
    2aba:	ac 01       	movw	r20, r24
    2abc:	69 85       	ldd	r22, Y+9	; 0x09
    2abe:	7a 85       	ldd	r23, Y+10	; 0x0a
    2ac0:	8b 85       	ldd	r24, Y+11	; 0x0b
    2ac2:	9c 85       	ldd	r25, Y+12	; 0x0c
    2ac4:	0e 94 76 18 	call	0x30ec	; 0x30ec <__mulsf3>
    2ac8:	9b 01       	movw	r18, r22
    2aca:	ac 01       	movw	r20, r24
    2acc:	c7 01       	movw	r24, r14
    2ace:	b6 01       	movw	r22, r12
    2ad0:	0e 94 01 17 	call	0x2e02	; 0x2e02 <__subsf3>
    2ad4:	6b 01       	movw	r12, r22
    2ad6:	7c 01       	movw	r14, r24
    2ad8:	b3 01       	movw	r22, r6
    2ada:	07 2c       	mov	r0, r7
    2adc:	00 0c       	add	r0, r0
    2ade:	88 0b       	sbc	r24, r24
    2ae0:	99 0b       	sbc	r25, r25
    2ae2:	0e 94 ab 17 	call	0x2f56	; 0x2f56 <__floatsisf>
    2ae6:	a7 01       	movw	r20, r14
    2ae8:	96 01       	movw	r18, r12
    2aea:	0e 94 02 17 	call	0x2e04	; 0x2e04 <__addsf3>
    2aee:	0e 94 73 17 	call	0x2ee6	; 0x2ee6 <__fixsfsi>
    2af2:	6b 01       	movw	r12, r22
    2af4:	7c 01       	movw	r14, r24
    2af6:	29 85       	ldd	r18, Y+9	; 0x09
    2af8:	3a 85       	ldd	r19, Y+10	; 0x0a
    2afa:	4b 85       	ldd	r20, Y+11	; 0x0b
    2afc:	5c 85       	ldd	r21, Y+12	; 0x0c
    2afe:	6d 81       	ldd	r22, Y+5	; 0x05
    2b00:	7e 81       	ldd	r23, Y+6	; 0x06
    2b02:	8f 81       	ldd	r24, Y+7	; 0x07
    2b04:	98 85       	ldd	r25, Y+8	; 0x08
    2b06:	0e 94 76 18 	call	0x30ec	; 0x30ec <__mulsf3>
    2b0a:	6d 83       	std	Y+5, r22	; 0x05
    2b0c:	7e 83       	std	Y+6, r23	; 0x06
    2b0e:	8f 83       	std	Y+7, r24	; 0x07
    2b10:	98 87       	std	Y+8, r25	; 0x08
    2b12:	2d 85       	ldd	r18, Y+13	; 0x0d
    2b14:	3e 85       	ldd	r19, Y+14	; 0x0e
    2b16:	4f 85       	ldd	r20, Y+15	; 0x0f
    2b18:	58 89       	ldd	r21, Y+16	; 0x10
    2b1a:	69 81       	ldd	r22, Y+1	; 0x01
    2b1c:	7a 81       	ldd	r23, Y+2	; 0x02
    2b1e:	8b 81       	ldd	r24, Y+3	; 0x03
    2b20:	9c 81       	ldd	r25, Y+4	; 0x04
    2b22:	0e 94 76 18 	call	0x30ec	; 0x30ec <__mulsf3>
    2b26:	9b 01       	movw	r18, r22
    2b28:	ac 01       	movw	r20, r24
    2b2a:	6d 81       	ldd	r22, Y+5	; 0x05
    2b2c:	7e 81       	ldd	r23, Y+6	; 0x06
    2b2e:	8f 81       	ldd	r24, Y+7	; 0x07
    2b30:	98 85       	ldd	r25, Y+8	; 0x08
    2b32:	0e 94 02 17 	call	0x2e04	; 0x2e04 <__addsf3>
    2b36:	69 83       	std	Y+1, r22	; 0x01
    2b38:	7a 83       	std	Y+2, r23	; 0x02
    2b3a:	8b 83       	std	Y+3, r24	; 0x03
    2b3c:	9c 83       	std	Y+4, r25	; 0x04
    2b3e:	b4 01       	movw	r22, r8
    2b40:	09 2c       	mov	r0, r9
    2b42:	00 0c       	add	r0, r0
    2b44:	88 0b       	sbc	r24, r24
    2b46:	99 0b       	sbc	r25, r25
    2b48:	0e 94 ab 17 	call	0x2f56	; 0x2f56 <__floatsisf>
    2b4c:	29 81       	ldd	r18, Y+1	; 0x01
    2b4e:	3a 81       	ldd	r19, Y+2	; 0x02
    2b50:	4b 81       	ldd	r20, Y+3	; 0x03
    2b52:	5c 81       	ldd	r21, Y+4	; 0x04
    2b54:	0e 94 02 17 	call	0x2e04	; 0x2e04 <__addsf3>
    2b58:	0e 94 73 17 	call	0x2ee6	; 0x2ee6 <__fixsfsi>
    2b5c:	8b 01       	movw	r16, r22
    2b5e:	0f 5f       	subi	r16, 0xFF	; 255
    2b60:	1f 4f       	sbci	r17, 0xFF	; 255
    2b62:	96 01       	movw	r18, r12
    2b64:	2f 5f       	subi	r18, 0xFF	; 255
    2b66:	3f 4f       	sbci	r19, 0xFF	; 255
    2b68:	ab 01       	movw	r20, r22
    2b6a:	b6 01       	movw	r22, r12
    2b6c:	c5 01       	movw	r24, r10
    2b6e:	0e 94 92 10 	call	0x2124	; 0x2124 <_ZN4UTFT5setXYEjjjj>
    2b72:	27 e0       	ldi	r18, 0x07	; 7
    2b74:	30 e0       	ldi	r19, 0x00	; 0
    2b76:	22 19       	sub	r18, r2
    2b78:	33 09       	sbc	r19, r3
    2b7a:	4b 8d       	ldd	r20, Y+27	; 0x1b
    2b7c:	84 2f       	mov	r24, r20
    2b7e:	90 e0       	ldi	r25, 0x00	; 0
    2b80:	02 c0       	rjmp	.+4      	; 0x2b86 <_ZN4UTFT10rotateCharEhiiii+0x24e>
    2b82:	95 95       	asr	r25
    2b84:	87 95       	ror	r24
    2b86:	2a 95       	dec	r18
    2b88:	e2 f7       	brpl	.-8      	; 0x2b82 <_ZN4UTFT10rotateCharEhiiii+0x24a>
    2b8a:	80 ff       	sbrs	r24, 0
    2b8c:	0c c0       	rjmp	.+24     	; 0x2ba6 <_ZN4UTFT10rotateCharEhiiii+0x26e>
    2b8e:	d5 01       	movw	r26, r10
    2b90:	6c 91       	ld	r22, X
    2b92:	70 e0       	ldi	r23, 0x00	; 0
    2b94:	76 2f       	mov	r23, r22
    2b96:	66 27       	eor	r22, r22
    2b98:	11 96       	adiw	r26, 0x01	; 1
    2b9a:	8c 91       	ld	r24, X
    2b9c:	68 2b       	or	r22, r24
    2b9e:	c5 01       	movw	r24, r10
    2ba0:	0e 94 ca 11 	call	0x2394	; 0x2394 <_ZN4UTFT8setPixelEj>
    2ba4:	0a c0       	rjmp	.+20     	; 0x2bba <_ZN4UTFT10rotateCharEhiiii+0x282>
    2ba6:	f5 01       	movw	r30, r10
    2ba8:	62 81       	ldd	r22, Z+2	; 0x02
    2baa:	70 e0       	ldi	r23, 0x00	; 0
    2bac:	76 2f       	mov	r23, r22
    2bae:	66 27       	eor	r22, r22
    2bb0:	83 81       	ldd	r24, Z+3	; 0x03
    2bb2:	68 2b       	or	r22, r24
    2bb4:	c5 01       	movw	r24, r10
    2bb6:	0e 94 ca 11 	call	0x2394	; 0x2394 <_ZN4UTFT8setPixelEj>
    2bba:	fa 8d       	ldd	r31, Y+26	; 0x1a
    2bbc:	ff 5f       	subi	r31, 0xFF	; 255
    2bbe:	fa 8f       	std	Y+26, r31	; 0x1a
    2bc0:	2d cf       	rjmp	.-422    	; 0x2a1c <_ZN4UTFT10rotateCharEhiiii+0xe4>
    2bc2:	2f ef       	ldi	r18, 0xFF	; 255
    2bc4:	42 1a       	sub	r4, r18
    2bc6:	52 0a       	sbc	r5, r18
    2bc8:	11 cf       	rjmp	.-478    	; 0x29ec <_ZN4UTFT10rotateCharEhiiii+0xb4>
    2bca:	48 8d       	ldd	r20, Y+24	; 0x18
    2bcc:	59 8d       	ldd	r21, Y+25	; 0x19
    2bce:	48 0f       	add	r20, r24
    2bd0:	51 1d       	adc	r21, r1
    2bd2:	59 8f       	std	Y+25, r21	; 0x19
    2bd4:	48 8f       	std	Y+24, r20	; 0x18
    2bd6:	5d 89       	ldd	r21, Y+21	; 0x15
    2bd8:	5f 5f       	subi	r21, 0xFF	; 255
    2bda:	5d 8b       	std	Y+21, r21	; 0x15
    2bdc:	fe ce       	rjmp	.-516    	; 0x29da <_ZN4UTFT10rotateCharEhiiii+0xa2>
    2bde:	85 b3       	in	r24, 0x15	; 21
    2be0:	82 60       	ori	r24, 0x02	; 2
    2be2:	85 bb       	out	0x15, r24	; 21
    2be4:	6b 96       	adiw	r28, 0x1b	; 27
    2be6:	0f b6       	in	r0, 0x3f	; 63
    2be8:	f8 94       	cli
    2bea:	de bf       	out	0x3e, r29	; 62
    2bec:	0f be       	out	0x3f, r0	; 63
    2bee:	cd bf       	out	0x3d, r28	; 61
    2bf0:	df 91       	pop	r29
    2bf2:	cf 91       	pop	r28
    2bf4:	1f 91       	pop	r17
    2bf6:	0f 91       	pop	r16
    2bf8:	ff 90       	pop	r15
    2bfa:	ef 90       	pop	r14
    2bfc:	df 90       	pop	r13
    2bfe:	cf 90       	pop	r12
    2c00:	bf 90       	pop	r11
    2c02:	af 90       	pop	r10
    2c04:	9f 90       	pop	r9
    2c06:	8f 90       	pop	r8
    2c08:	7f 90       	pop	r7
    2c0a:	6f 90       	pop	r6
    2c0c:	5f 90       	pop	r5
    2c0e:	4f 90       	pop	r4
    2c10:	3f 90       	pop	r3
    2c12:	2f 90       	pop	r2
    2c14:	08 95       	ret

00002c16 <_ZN4UTFT5printEPKciii>:
    2c16:	2f 92       	push	r2
    2c18:	3f 92       	push	r3
    2c1a:	4f 92       	push	r4
    2c1c:	5f 92       	push	r5
    2c1e:	6f 92       	push	r6
    2c20:	7f 92       	push	r7
    2c22:	8f 92       	push	r8
    2c24:	9f 92       	push	r9
    2c26:	af 92       	push	r10
    2c28:	bf 92       	push	r11
    2c2a:	cf 92       	push	r12
    2c2c:	df 92       	push	r13
    2c2e:	ef 92       	push	r14
    2c30:	ff 92       	push	r15
    2c32:	0f 93       	push	r16
    2c34:	1f 93       	push	r17
    2c36:	cf 93       	push	r28
    2c38:	df 93       	push	r29
    2c3a:	ec 01       	movw	r28, r24
    2c3c:	fb 01       	movw	r30, r22
    2c3e:	5a 01       	movw	r10, r20
    2c40:	29 01       	movw	r4, r18
    2c42:	68 01       	movw	r12, r16
    2c44:	db 01       	movw	r26, r22
    2c46:	0d 90       	ld	r0, X+
    2c48:	00 20       	and	r0, r0
    2c4a:	e9 f7       	brne	.-6      	; 0x2c46 <_ZN4UTFT5printEPKciii+0x30>
    2c4c:	11 97       	sbiw	r26, 0x01	; 1
    2c4e:	a6 1b       	sub	r26, r22
    2c50:	b7 0b       	sbc	r27, r23
    2c52:	4d 01       	movw	r8, r26
    2c54:	8c 81       	ldd	r24, Y+4	; 0x04
    2c56:	81 11       	cpse	r24, r1
    2c58:	3e c0       	rjmp	.+124    	; 0x2cd6 <_ZN4UTFT5printEPKciii+0xc0>
    2c5a:	4f 30       	cpi	r20, 0x0F	; 15
    2c5c:	57 42       	sbci	r21, 0x27	; 39
    2c5e:	81 f4       	brne	.+32     	; 0x2c80 <_ZN4UTFT5printEPKciii+0x6a>
    2c60:	4d 81       	ldd	r20, Y+5	; 0x05
    2c62:	5e 81       	ldd	r21, Y+6	; 0x06
    2c64:	6f 81       	ldd	r22, Y+7	; 0x07
    2c66:	78 85       	ldd	r23, Y+8	; 0x08
    2c68:	2f 85       	ldd	r18, Y+15	; 0x0f
    2c6a:	2a 9f       	mul	r18, r26
    2c6c:	c0 01       	movw	r24, r0
    2c6e:	2b 9f       	mul	r18, r27
    2c70:	90 0d       	add	r25, r0
    2c72:	11 24       	eor	r1, r1
    2c74:	48 1b       	sub	r20, r24
    2c76:	59 0b       	sbc	r21, r25
    2c78:	5a 01       	movw	r10, r20
    2c7a:	1f ef       	ldi	r17, 0xFF	; 255
    2c7c:	a1 1a       	sub	r10, r17
    2c7e:	b1 0a       	sbc	r11, r17
    2c80:	2e e0       	ldi	r18, 0x0E	; 14
    2c82:	a2 16       	cp	r10, r18
    2c84:	27 e2       	ldi	r18, 0x27	; 39
    2c86:	b2 06       	cpc	r11, r18
    2c88:	09 f0       	breq	.+2      	; 0x2c8c <_ZN4UTFT5printEPKciii+0x76>
    2c8a:	61 c0       	rjmp	.+194    	; 0x2d4e <_ZN4UTFT5printEPKciii+0x138>
    2c8c:	4d 81       	ldd	r20, Y+5	; 0x05
    2c8e:	5e 81       	ldd	r21, Y+6	; 0x06
    2c90:	6f 81       	ldd	r22, Y+7	; 0x07
    2c92:	78 85       	ldd	r23, Y+8	; 0x08
    2c94:	4f 5f       	subi	r20, 0xFF	; 255
    2c96:	5f 4f       	sbci	r21, 0xFF	; 255
    2c98:	6f 4f       	sbci	r22, 0xFF	; 255
    2c9a:	7f 4f       	sbci	r23, 0xFF	; 255
    2c9c:	2f 85       	ldd	r18, Y+15	; 0x0f
    2c9e:	2a 9f       	mul	r18, r26
    2ca0:	c0 01       	movw	r24, r0
    2ca2:	2b 9f       	mul	r18, r27
    2ca4:	90 0d       	add	r25, r0
    2ca6:	11 24       	eor	r1, r1
    2ca8:	09 2e       	mov	r0, r25
    2caa:	00 0c       	add	r0, r0
    2cac:	aa 0b       	sbc	r26, r26
    2cae:	bb 0b       	sbc	r27, r27
    2cb0:	8a 01       	movw	r16, r20
    2cb2:	9b 01       	movw	r18, r22
    2cb4:	08 1b       	sub	r16, r24
    2cb6:	19 0b       	sbc	r17, r25
    2cb8:	2a 0b       	sbc	r18, r26
    2cba:	3b 0b       	sbc	r19, r27
    2cbc:	b9 01       	movw	r22, r18
    2cbe:	a8 01       	movw	r20, r16
    2cc0:	22 f4       	brpl	.+8      	; 0x2cca <_ZN4UTFT5printEPKciii+0xb4>
    2cc2:	4f 5f       	subi	r20, 0xFF	; 255
    2cc4:	5f 4f       	sbci	r21, 0xFF	; 255
    2cc6:	6f 4f       	sbci	r22, 0xFF	; 255
    2cc8:	7f 4f       	sbci	r23, 0xFF	; 255
    2cca:	75 95       	asr	r23
    2ccc:	67 95       	ror	r22
    2cce:	57 95       	ror	r21
    2cd0:	47 95       	ror	r20
    2cd2:	5a 01       	movw	r10, r20
    2cd4:	3c c0       	rjmp	.+120    	; 0x2d4e <_ZN4UTFT5printEPKciii+0x138>
    2cd6:	4f 30       	cpi	r20, 0x0F	; 15
    2cd8:	57 42       	sbci	r21, 0x27	; 39
    2cda:	81 f4       	brne	.+32     	; 0x2cfc <_ZN4UTFT5printEPKciii+0xe6>
    2cdc:	49 85       	ldd	r20, Y+9	; 0x09
    2cde:	5a 85       	ldd	r21, Y+10	; 0x0a
    2ce0:	6b 85       	ldd	r22, Y+11	; 0x0b
    2ce2:	7c 85       	ldd	r23, Y+12	; 0x0c
    2ce4:	2f 85       	ldd	r18, Y+15	; 0x0f
    2ce6:	2a 9f       	mul	r18, r26
    2ce8:	c0 01       	movw	r24, r0
    2cea:	2b 9f       	mul	r18, r27
    2cec:	90 0d       	add	r25, r0
    2cee:	11 24       	eor	r1, r1
    2cf0:	48 1b       	sub	r20, r24
    2cf2:	59 0b       	sbc	r21, r25
    2cf4:	5a 01       	movw	r10, r20
    2cf6:	2f ef       	ldi	r18, 0xFF	; 255
    2cf8:	a2 1a       	sub	r10, r18
    2cfa:	b2 0a       	sbc	r11, r18
    2cfc:	3e e0       	ldi	r19, 0x0E	; 14
    2cfe:	a3 16       	cp	r10, r19
    2d00:	37 e2       	ldi	r19, 0x27	; 39
    2d02:	b3 06       	cpc	r11, r19
    2d04:	21 f5       	brne	.+72     	; 0x2d4e <_ZN4UTFT5printEPKciii+0x138>
    2d06:	49 85       	ldd	r20, Y+9	; 0x09
    2d08:	5a 85       	ldd	r21, Y+10	; 0x0a
    2d0a:	6b 85       	ldd	r22, Y+11	; 0x0b
    2d0c:	7c 85       	ldd	r23, Y+12	; 0x0c
    2d0e:	4f 5f       	subi	r20, 0xFF	; 255
    2d10:	5f 4f       	sbci	r21, 0xFF	; 255
    2d12:	6f 4f       	sbci	r22, 0xFF	; 255
    2d14:	7f 4f       	sbci	r23, 0xFF	; 255
    2d16:	2f 85       	ldd	r18, Y+15	; 0x0f
    2d18:	2a 9f       	mul	r18, r26
    2d1a:	c0 01       	movw	r24, r0
    2d1c:	2b 9f       	mul	r18, r27
    2d1e:	90 0d       	add	r25, r0
    2d20:	11 24       	eor	r1, r1
    2d22:	09 2e       	mov	r0, r25
    2d24:	00 0c       	add	r0, r0
    2d26:	aa 0b       	sbc	r26, r26
    2d28:	bb 0b       	sbc	r27, r27
    2d2a:	8a 01       	movw	r16, r20
    2d2c:	9b 01       	movw	r18, r22
    2d2e:	08 1b       	sub	r16, r24
    2d30:	19 0b       	sbc	r17, r25
    2d32:	2a 0b       	sbc	r18, r26
    2d34:	3b 0b       	sbc	r19, r27
    2d36:	b9 01       	movw	r22, r18
    2d38:	a8 01       	movw	r20, r16
    2d3a:	22 f4       	brpl	.+8      	; 0x2d44 <_ZN4UTFT5printEPKciii+0x12e>
    2d3c:	4f 5f       	subi	r20, 0xFF	; 255
    2d3e:	5f 4f       	sbci	r21, 0xFF	; 255
    2d40:	6f 4f       	sbci	r22, 0xFF	; 255
    2d42:	7f 4f       	sbci	r23, 0xFF	; 255
    2d44:	75 95       	asr	r23
    2d46:	67 95       	ror	r22
    2d48:	57 95       	ror	r21
    2d4a:	47 95       	ror	r20
    2d4c:	5a 01       	movw	r10, r20
    2d4e:	61 2c       	mov	r6, r1
    2d50:	71 2c       	mov	r7, r1
    2d52:	68 14       	cp	r6, r8
    2d54:	79 04       	cpc	r7, r9
    2d56:	3c f5       	brge	.+78     	; 0x2da6 <_ZN4UTFT5printEPKciii+0x190>
    2d58:	c1 14       	cp	r12, r1
    2d5a:	d1 04       	cpc	r13, r1
    2d5c:	99 f4       	brne	.+38     	; 0x2d84 <_ZN4UTFT5printEPKciii+0x16e>
    2d5e:	8f 85       	ldd	r24, Y+15	; 0x0f
    2d60:	86 9d       	mul	r24, r6
    2d62:	a0 01       	movw	r20, r0
    2d64:	87 9d       	mul	r24, r7
    2d66:	50 0d       	add	r21, r0
    2d68:	11 24       	eor	r1, r1
    2d6a:	4a 0d       	add	r20, r10
    2d6c:	5b 1d       	adc	r21, r11
    2d6e:	1f 01       	movw	r2, r30
    2d70:	1f ef       	ldi	r17, 0xFF	; 255
    2d72:	21 1a       	sub	r2, r17
    2d74:	31 0a       	sbc	r3, r17
    2d76:	60 81       	ld	r22, Z
    2d78:	92 01       	movw	r18, r4
    2d7a:	ce 01       	movw	r24, r28
    2d7c:	0e 94 a3 13 	call	0x2746	; 0x2746 <_ZN4UTFT9printCharEhii>
    2d80:	f1 01       	movw	r30, r2
    2d82:	0d c0       	rjmp	.+26     	; 0x2d9e <_ZN4UTFT5printEPKciii+0x188>
    2d84:	1f 01       	movw	r2, r30
    2d86:	2f ef       	ldi	r18, 0xFF	; 255
    2d88:	22 1a       	sub	r2, r18
    2d8a:	32 0a       	sbc	r3, r18
    2d8c:	60 81       	ld	r22, Z
    2d8e:	76 01       	movw	r14, r12
    2d90:	83 01       	movw	r16, r6
    2d92:	92 01       	movw	r18, r4
    2d94:	a5 01       	movw	r20, r10
    2d96:	ce 01       	movw	r24, r28
    2d98:	0e 94 9c 14 	call	0x2938	; 0x2938 <_ZN4UTFT10rotateCharEhiiii>
    2d9c:	f1 01       	movw	r30, r2
    2d9e:	3f ef       	ldi	r19, 0xFF	; 255
    2da0:	63 1a       	sub	r6, r19
    2da2:	73 0a       	sbc	r7, r19
    2da4:	d6 cf       	rjmp	.-84     	; 0x2d52 <_ZN4UTFT5printEPKciii+0x13c>
    2da6:	df 91       	pop	r29
    2da8:	cf 91       	pop	r28
    2daa:	1f 91       	pop	r17
    2dac:	0f 91       	pop	r16
    2dae:	ff 90       	pop	r15
    2db0:	ef 90       	pop	r14
    2db2:	df 90       	pop	r13
    2db4:	cf 90       	pop	r12
    2db6:	bf 90       	pop	r11
    2db8:	af 90       	pop	r10
    2dba:	9f 90       	pop	r9
    2dbc:	8f 90       	pop	r8
    2dbe:	7f 90       	pop	r7
    2dc0:	6f 90       	pop	r6
    2dc2:	5f 90       	pop	r5
    2dc4:	4f 90       	pop	r4
    2dc6:	3f 90       	pop	r3
    2dc8:	2f 90       	pop	r2
    2dca:	08 95       	ret

00002dcc <_ZN4UTFT7setFontEPKh>:

void UTFT::setFont(const uint8_t* font)
{
    2dcc:	dc 01       	movw	r26, r24
	cfont.font=font;
    2dce:	1e 96       	adiw	r26, 0x0e	; 14
    2dd0:	7c 93       	st	X, r23
    2dd2:	6e 93       	st	-X, r22
    2dd4:	1d 97       	sbiw	r26, 0x0d	; 13
	cfont.x_size=fontbyte(0);
    2dd6:	fb 01       	movw	r30, r22
    2dd8:	84 91       	lpm	r24, Z
    2dda:	1f 96       	adiw	r26, 0x0f	; 15
    2ddc:	8c 93       	st	X, r24
    2dde:	1f 97       	sbiw	r26, 0x0f	; 15
	cfont.y_size=fontbyte(1);
    2de0:	31 96       	adiw	r30, 0x01	; 1
    2de2:	e4 91       	lpm	r30, Z
    2de4:	50 96       	adiw	r26, 0x10	; 16
    2de6:	ec 93       	st	X, r30
    2de8:	50 97       	sbiw	r26, 0x10	; 16
	cfont.offset=fontbyte(2);
    2dea:	fb 01       	movw	r30, r22
    2dec:	32 96       	adiw	r30, 0x02	; 2
    2dee:	e4 91       	lpm	r30, Z
    2df0:	51 96       	adiw	r26, 0x11	; 17
    2df2:	ec 93       	st	X, r30
    2df4:	51 97       	sbiw	r26, 0x11	; 17
	cfont.numchars=fontbyte(3);
    2df6:	fb 01       	movw	r30, r22
    2df8:	33 96       	adiw	r30, 0x03	; 3
    2dfa:	64 91       	lpm	r22, Z
    2dfc:	52 96       	adiw	r26, 0x12	; 18
    2dfe:	6c 93       	st	X, r22
    2e00:	08 95       	ret

00002e02 <__subsf3>:
    2e02:	50 58       	subi	r21, 0x80	; 128

00002e04 <__addsf3>:
    2e04:	bb 27       	eor	r27, r27
    2e06:	aa 27       	eor	r26, r26
    2e08:	0e 94 19 17 	call	0x2e32	; 0x2e32 <__addsf3x>
    2e0c:	0c 94 28 18 	jmp	0x3050	; 0x3050 <__fp_round>
    2e10:	0e 94 ef 17 	call	0x2fde	; 0x2fde <__fp_pscA>
    2e14:	38 f0       	brcs	.+14     	; 0x2e24 <__addsf3+0x20>
    2e16:	0e 94 f6 17 	call	0x2fec	; 0x2fec <__fp_pscB>
    2e1a:	20 f0       	brcs	.+8      	; 0x2e24 <__addsf3+0x20>
    2e1c:	39 f4       	brne	.+14     	; 0x2e2c <__addsf3+0x28>
    2e1e:	9f 3f       	cpi	r25, 0xFF	; 255
    2e20:	19 f4       	brne	.+6      	; 0x2e28 <__addsf3+0x24>
    2e22:	26 f4       	brtc	.+8      	; 0x2e2c <__addsf3+0x28>
    2e24:	0c 94 ec 17 	jmp	0x2fd8	; 0x2fd8 <__fp_nan>
    2e28:	0e f4       	brtc	.+2      	; 0x2e2c <__addsf3+0x28>
    2e2a:	e0 95       	com	r30
    2e2c:	e7 fb       	bst	r30, 7
    2e2e:	0c 94 e6 17 	jmp	0x2fcc	; 0x2fcc <__fp_inf>

00002e32 <__addsf3x>:
    2e32:	e9 2f       	mov	r30, r25
    2e34:	0e 94 4d 18 	call	0x309a	; 0x309a <__fp_split3>
    2e38:	58 f3       	brcs	.-42     	; 0x2e10 <__addsf3+0xc>
    2e3a:	ba 17       	cp	r27, r26
    2e3c:	62 07       	cpc	r22, r18
    2e3e:	73 07       	cpc	r23, r19
    2e40:	84 07       	cpc	r24, r20
    2e42:	95 07       	cpc	r25, r21
    2e44:	20 f0       	brcs	.+8      	; 0x2e4e <__addsf3x+0x1c>
    2e46:	79 f4       	brne	.+30     	; 0x2e66 <__addsf3x+0x34>
    2e48:	a6 f5       	brtc	.+104    	; 0x2eb2 <__addsf3x+0x80>
    2e4a:	0c 94 6f 18 	jmp	0x30de	; 0x30de <__fp_zero>
    2e4e:	0e f4       	brtc	.+2      	; 0x2e52 <__addsf3x+0x20>
    2e50:	e0 95       	com	r30
    2e52:	0b 2e       	mov	r0, r27
    2e54:	ba 2f       	mov	r27, r26
    2e56:	a0 2d       	mov	r26, r0
    2e58:	0b 01       	movw	r0, r22
    2e5a:	b9 01       	movw	r22, r18
    2e5c:	90 01       	movw	r18, r0
    2e5e:	0c 01       	movw	r0, r24
    2e60:	ca 01       	movw	r24, r20
    2e62:	a0 01       	movw	r20, r0
    2e64:	11 24       	eor	r1, r1
    2e66:	ff 27       	eor	r31, r31
    2e68:	59 1b       	sub	r21, r25
    2e6a:	99 f0       	breq	.+38     	; 0x2e92 <__addsf3x+0x60>
    2e6c:	59 3f       	cpi	r21, 0xF9	; 249
    2e6e:	50 f4       	brcc	.+20     	; 0x2e84 <__addsf3x+0x52>
    2e70:	50 3e       	cpi	r21, 0xE0	; 224
    2e72:	68 f1       	brcs	.+90     	; 0x2ece <__addsf3x+0x9c>
    2e74:	1a 16       	cp	r1, r26
    2e76:	f0 40       	sbci	r31, 0x00	; 0
    2e78:	a2 2f       	mov	r26, r18
    2e7a:	23 2f       	mov	r18, r19
    2e7c:	34 2f       	mov	r19, r20
    2e7e:	44 27       	eor	r20, r20
    2e80:	58 5f       	subi	r21, 0xF8	; 248
    2e82:	f3 cf       	rjmp	.-26     	; 0x2e6a <__addsf3x+0x38>
    2e84:	46 95       	lsr	r20
    2e86:	37 95       	ror	r19
    2e88:	27 95       	ror	r18
    2e8a:	a7 95       	ror	r26
    2e8c:	f0 40       	sbci	r31, 0x00	; 0
    2e8e:	53 95       	inc	r21
    2e90:	c9 f7       	brne	.-14     	; 0x2e84 <__addsf3x+0x52>
    2e92:	7e f4       	brtc	.+30     	; 0x2eb2 <__addsf3x+0x80>
    2e94:	1f 16       	cp	r1, r31
    2e96:	ba 0b       	sbc	r27, r26
    2e98:	62 0b       	sbc	r22, r18
    2e9a:	73 0b       	sbc	r23, r19
    2e9c:	84 0b       	sbc	r24, r20
    2e9e:	ba f0       	brmi	.+46     	; 0x2ece <__addsf3x+0x9c>
    2ea0:	91 50       	subi	r25, 0x01	; 1
    2ea2:	a1 f0       	breq	.+40     	; 0x2ecc <__addsf3x+0x9a>
    2ea4:	ff 0f       	add	r31, r31
    2ea6:	bb 1f       	adc	r27, r27
    2ea8:	66 1f       	adc	r22, r22
    2eaa:	77 1f       	adc	r23, r23
    2eac:	88 1f       	adc	r24, r24
    2eae:	c2 f7       	brpl	.-16     	; 0x2ea0 <__addsf3x+0x6e>
    2eb0:	0e c0       	rjmp	.+28     	; 0x2ece <__addsf3x+0x9c>
    2eb2:	ba 0f       	add	r27, r26
    2eb4:	62 1f       	adc	r22, r18
    2eb6:	73 1f       	adc	r23, r19
    2eb8:	84 1f       	adc	r24, r20
    2eba:	48 f4       	brcc	.+18     	; 0x2ece <__addsf3x+0x9c>
    2ebc:	87 95       	ror	r24
    2ebe:	77 95       	ror	r23
    2ec0:	67 95       	ror	r22
    2ec2:	b7 95       	ror	r27
    2ec4:	f7 95       	ror	r31
    2ec6:	9e 3f       	cpi	r25, 0xFE	; 254
    2ec8:	08 f0       	brcs	.+2      	; 0x2ecc <__addsf3x+0x9a>
    2eca:	b0 cf       	rjmp	.-160    	; 0x2e2c <__addsf3+0x28>
    2ecc:	93 95       	inc	r25
    2ece:	88 0f       	add	r24, r24
    2ed0:	08 f0       	brcs	.+2      	; 0x2ed4 <__addsf3x+0xa2>
    2ed2:	99 27       	eor	r25, r25
    2ed4:	ee 0f       	add	r30, r30
    2ed6:	97 95       	ror	r25
    2ed8:	87 95       	ror	r24
    2eda:	08 95       	ret

00002edc <cos>:
    2edc:	0e 94 ff 17 	call	0x2ffe	; 0x2ffe <__fp_rempio2>
    2ee0:	e3 95       	inc	r30
    2ee2:	0c 94 39 18 	jmp	0x3072	; 0x3072 <__fp_sinus>

00002ee6 <__fixsfsi>:
    2ee6:	0e 94 7a 17 	call	0x2ef4	; 0x2ef4 <__fixunssfsi>
    2eea:	68 94       	set
    2eec:	b1 11       	cpse	r27, r1
    2eee:	0c 94 70 18 	jmp	0x30e0	; 0x30e0 <__fp_szero>
    2ef2:	08 95       	ret

00002ef4 <__fixunssfsi>:
    2ef4:	0e 94 55 18 	call	0x30aa	; 0x30aa <__fp_splitA>
    2ef8:	88 f0       	brcs	.+34     	; 0x2f1c <__fixunssfsi+0x28>
    2efa:	9f 57       	subi	r25, 0x7F	; 127
    2efc:	98 f0       	brcs	.+38     	; 0x2f24 <__fixunssfsi+0x30>
    2efe:	b9 2f       	mov	r27, r25
    2f00:	99 27       	eor	r25, r25
    2f02:	b7 51       	subi	r27, 0x17	; 23
    2f04:	b0 f0       	brcs	.+44     	; 0x2f32 <__fixunssfsi+0x3e>
    2f06:	e1 f0       	breq	.+56     	; 0x2f40 <__fixunssfsi+0x4c>
    2f08:	66 0f       	add	r22, r22
    2f0a:	77 1f       	adc	r23, r23
    2f0c:	88 1f       	adc	r24, r24
    2f0e:	99 1f       	adc	r25, r25
    2f10:	1a f0       	brmi	.+6      	; 0x2f18 <__fixunssfsi+0x24>
    2f12:	ba 95       	dec	r27
    2f14:	c9 f7       	brne	.-14     	; 0x2f08 <__fixunssfsi+0x14>
    2f16:	14 c0       	rjmp	.+40     	; 0x2f40 <__fixunssfsi+0x4c>
    2f18:	b1 30       	cpi	r27, 0x01	; 1
    2f1a:	91 f0       	breq	.+36     	; 0x2f40 <__fixunssfsi+0x4c>
    2f1c:	0e 94 6f 18 	call	0x30de	; 0x30de <__fp_zero>
    2f20:	b1 e0       	ldi	r27, 0x01	; 1
    2f22:	08 95       	ret
    2f24:	0c 94 6f 18 	jmp	0x30de	; 0x30de <__fp_zero>
    2f28:	67 2f       	mov	r22, r23
    2f2a:	78 2f       	mov	r23, r24
    2f2c:	88 27       	eor	r24, r24
    2f2e:	b8 5f       	subi	r27, 0xF8	; 248
    2f30:	39 f0       	breq	.+14     	; 0x2f40 <__fixunssfsi+0x4c>
    2f32:	b9 3f       	cpi	r27, 0xF9	; 249
    2f34:	cc f3       	brlt	.-14     	; 0x2f28 <__fixunssfsi+0x34>
    2f36:	86 95       	lsr	r24
    2f38:	77 95       	ror	r23
    2f3a:	67 95       	ror	r22
    2f3c:	b3 95       	inc	r27
    2f3e:	d9 f7       	brne	.-10     	; 0x2f36 <__fixunssfsi+0x42>
    2f40:	3e f4       	brtc	.+14     	; 0x2f50 <__fixunssfsi+0x5c>
    2f42:	90 95       	com	r25
    2f44:	80 95       	com	r24
    2f46:	70 95       	com	r23
    2f48:	61 95       	neg	r22
    2f4a:	7f 4f       	sbci	r23, 0xFF	; 255
    2f4c:	8f 4f       	sbci	r24, 0xFF	; 255
    2f4e:	9f 4f       	sbci	r25, 0xFF	; 255
    2f50:	08 95       	ret

00002f52 <__floatunsisf>:
    2f52:	e8 94       	clt
    2f54:	09 c0       	rjmp	.+18     	; 0x2f68 <__floatsisf+0x12>

00002f56 <__floatsisf>:
    2f56:	97 fb       	bst	r25, 7
    2f58:	3e f4       	brtc	.+14     	; 0x2f68 <__floatsisf+0x12>
    2f5a:	90 95       	com	r25
    2f5c:	80 95       	com	r24
    2f5e:	70 95       	com	r23
    2f60:	61 95       	neg	r22
    2f62:	7f 4f       	sbci	r23, 0xFF	; 255
    2f64:	8f 4f       	sbci	r24, 0xFF	; 255
    2f66:	9f 4f       	sbci	r25, 0xFF	; 255
    2f68:	99 23       	and	r25, r25
    2f6a:	a9 f0       	breq	.+42     	; 0x2f96 <__floatsisf+0x40>
    2f6c:	f9 2f       	mov	r31, r25
    2f6e:	96 e9       	ldi	r25, 0x96	; 150
    2f70:	bb 27       	eor	r27, r27
    2f72:	93 95       	inc	r25
    2f74:	f6 95       	lsr	r31
    2f76:	87 95       	ror	r24
    2f78:	77 95       	ror	r23
    2f7a:	67 95       	ror	r22
    2f7c:	b7 95       	ror	r27
    2f7e:	f1 11       	cpse	r31, r1
    2f80:	f8 cf       	rjmp	.-16     	; 0x2f72 <__floatsisf+0x1c>
    2f82:	fa f4       	brpl	.+62     	; 0x2fc2 <__floatsisf+0x6c>
    2f84:	bb 0f       	add	r27, r27
    2f86:	11 f4       	brne	.+4      	; 0x2f8c <__floatsisf+0x36>
    2f88:	60 ff       	sbrs	r22, 0
    2f8a:	1b c0       	rjmp	.+54     	; 0x2fc2 <__floatsisf+0x6c>
    2f8c:	6f 5f       	subi	r22, 0xFF	; 255
    2f8e:	7f 4f       	sbci	r23, 0xFF	; 255
    2f90:	8f 4f       	sbci	r24, 0xFF	; 255
    2f92:	9f 4f       	sbci	r25, 0xFF	; 255
    2f94:	16 c0       	rjmp	.+44     	; 0x2fc2 <__floatsisf+0x6c>
    2f96:	88 23       	and	r24, r24
    2f98:	11 f0       	breq	.+4      	; 0x2f9e <__floatsisf+0x48>
    2f9a:	96 e9       	ldi	r25, 0x96	; 150
    2f9c:	11 c0       	rjmp	.+34     	; 0x2fc0 <__floatsisf+0x6a>
    2f9e:	77 23       	and	r23, r23
    2fa0:	21 f0       	breq	.+8      	; 0x2faa <__floatsisf+0x54>
    2fa2:	9e e8       	ldi	r25, 0x8E	; 142
    2fa4:	87 2f       	mov	r24, r23
    2fa6:	76 2f       	mov	r23, r22
    2fa8:	05 c0       	rjmp	.+10     	; 0x2fb4 <__floatsisf+0x5e>
    2faa:	66 23       	and	r22, r22
    2fac:	71 f0       	breq	.+28     	; 0x2fca <__floatsisf+0x74>
    2fae:	96 e8       	ldi	r25, 0x86	; 134
    2fb0:	86 2f       	mov	r24, r22
    2fb2:	70 e0       	ldi	r23, 0x00	; 0
    2fb4:	60 e0       	ldi	r22, 0x00	; 0
    2fb6:	2a f0       	brmi	.+10     	; 0x2fc2 <__floatsisf+0x6c>
    2fb8:	9a 95       	dec	r25
    2fba:	66 0f       	add	r22, r22
    2fbc:	77 1f       	adc	r23, r23
    2fbe:	88 1f       	adc	r24, r24
    2fc0:	da f7       	brpl	.-10     	; 0x2fb8 <__floatsisf+0x62>
    2fc2:	88 0f       	add	r24, r24
    2fc4:	96 95       	lsr	r25
    2fc6:	87 95       	ror	r24
    2fc8:	97 f9       	bld	r25, 7
    2fca:	08 95       	ret

00002fcc <__fp_inf>:
    2fcc:	97 f9       	bld	r25, 7
    2fce:	9f 67       	ori	r25, 0x7F	; 127
    2fd0:	80 e8       	ldi	r24, 0x80	; 128
    2fd2:	70 e0       	ldi	r23, 0x00	; 0
    2fd4:	60 e0       	ldi	r22, 0x00	; 0
    2fd6:	08 95       	ret

00002fd8 <__fp_nan>:
    2fd8:	9f ef       	ldi	r25, 0xFF	; 255
    2fda:	80 ec       	ldi	r24, 0xC0	; 192
    2fdc:	08 95       	ret

00002fde <__fp_pscA>:
    2fde:	00 24       	eor	r0, r0
    2fe0:	0a 94       	dec	r0
    2fe2:	16 16       	cp	r1, r22
    2fe4:	17 06       	cpc	r1, r23
    2fe6:	18 06       	cpc	r1, r24
    2fe8:	09 06       	cpc	r0, r25
    2fea:	08 95       	ret

00002fec <__fp_pscB>:
    2fec:	00 24       	eor	r0, r0
    2fee:	0a 94       	dec	r0
    2ff0:	12 16       	cp	r1, r18
    2ff2:	13 06       	cpc	r1, r19
    2ff4:	14 06       	cpc	r1, r20
    2ff6:	05 06       	cpc	r0, r21
    2ff8:	08 95       	ret
    2ffa:	0c 94 ec 17 	jmp	0x2fd8	; 0x2fd8 <__fp_nan>

00002ffe <__fp_rempio2>:
    2ffe:	0e 94 55 18 	call	0x30aa	; 0x30aa <__fp_splitA>
    3002:	d8 f3       	brcs	.-10     	; 0x2ffa <__fp_pscB+0xe>
    3004:	e8 94       	clt
    3006:	e0 e0       	ldi	r30, 0x00	; 0
    3008:	bb 27       	eor	r27, r27
    300a:	9f 57       	subi	r25, 0x7F	; 127
    300c:	f0 f0       	brcs	.+60     	; 0x304a <__fp_rempio2+0x4c>
    300e:	2a ed       	ldi	r18, 0xDA	; 218
    3010:	3f e0       	ldi	r19, 0x0F	; 15
    3012:	49 ec       	ldi	r20, 0xC9	; 201
    3014:	06 c0       	rjmp	.+12     	; 0x3022 <__fp_rempio2+0x24>
    3016:	ee 0f       	add	r30, r30
    3018:	bb 0f       	add	r27, r27
    301a:	66 1f       	adc	r22, r22
    301c:	77 1f       	adc	r23, r23
    301e:	88 1f       	adc	r24, r24
    3020:	28 f0       	brcs	.+10     	; 0x302c <__fp_rempio2+0x2e>
    3022:	b2 3a       	cpi	r27, 0xA2	; 162
    3024:	62 07       	cpc	r22, r18
    3026:	73 07       	cpc	r23, r19
    3028:	84 07       	cpc	r24, r20
    302a:	28 f0       	brcs	.+10     	; 0x3036 <__fp_rempio2+0x38>
    302c:	b2 5a       	subi	r27, 0xA2	; 162
    302e:	62 0b       	sbc	r22, r18
    3030:	73 0b       	sbc	r23, r19
    3032:	84 0b       	sbc	r24, r20
    3034:	e3 95       	inc	r30
    3036:	9a 95       	dec	r25
    3038:	72 f7       	brpl	.-36     	; 0x3016 <__fp_rempio2+0x18>
    303a:	80 38       	cpi	r24, 0x80	; 128
    303c:	30 f4       	brcc	.+12     	; 0x304a <__fp_rempio2+0x4c>
    303e:	9a 95       	dec	r25
    3040:	bb 0f       	add	r27, r27
    3042:	66 1f       	adc	r22, r22
    3044:	77 1f       	adc	r23, r23
    3046:	88 1f       	adc	r24, r24
    3048:	d2 f7       	brpl	.-12     	; 0x303e <__fp_rempio2+0x40>
    304a:	90 48       	sbci	r25, 0x80	; 128
    304c:	0c 94 ed 18 	jmp	0x31da	; 0x31da <__fp_mpack_finite>

00003050 <__fp_round>:
    3050:	09 2e       	mov	r0, r25
    3052:	03 94       	inc	r0
    3054:	00 0c       	add	r0, r0
    3056:	11 f4       	brne	.+4      	; 0x305c <__fp_round+0xc>
    3058:	88 23       	and	r24, r24
    305a:	52 f0       	brmi	.+20     	; 0x3070 <__fp_round+0x20>
    305c:	bb 0f       	add	r27, r27
    305e:	40 f4       	brcc	.+16     	; 0x3070 <__fp_round+0x20>
    3060:	bf 2b       	or	r27, r31
    3062:	11 f4       	brne	.+4      	; 0x3068 <__fp_round+0x18>
    3064:	60 ff       	sbrs	r22, 0
    3066:	04 c0       	rjmp	.+8      	; 0x3070 <__fp_round+0x20>
    3068:	6f 5f       	subi	r22, 0xFF	; 255
    306a:	7f 4f       	sbci	r23, 0xFF	; 255
    306c:	8f 4f       	sbci	r24, 0xFF	; 255
    306e:	9f 4f       	sbci	r25, 0xFF	; 255
    3070:	08 95       	ret

00003072 <__fp_sinus>:
    3072:	ef 93       	push	r30
    3074:	e0 ff       	sbrs	r30, 0
    3076:	07 c0       	rjmp	.+14     	; 0x3086 <__fp_sinus+0x14>
    3078:	a2 ea       	ldi	r26, 0xA2	; 162
    307a:	2a ed       	ldi	r18, 0xDA	; 218
    307c:	3f e0       	ldi	r19, 0x0F	; 15
    307e:	49 ec       	ldi	r20, 0xC9	; 201
    3080:	5f eb       	ldi	r21, 0xBF	; 191
    3082:	0e 94 19 17 	call	0x2e32	; 0x2e32 <__addsf3x>
    3086:	0e 94 28 18 	call	0x3050	; 0x3050 <__fp_round>
    308a:	0f 90       	pop	r0
    308c:	03 94       	inc	r0
    308e:	01 fc       	sbrc	r0, 1
    3090:	90 58       	subi	r25, 0x80	; 128
    3092:	e4 e5       	ldi	r30, 0x54	; 84
    3094:	f0 e0       	ldi	r31, 0x00	; 0
    3096:	0c 94 f9 18 	jmp	0x31f2	; 0x31f2 <__fp_powsodd>

0000309a <__fp_split3>:
    309a:	57 fd       	sbrc	r21, 7
    309c:	90 58       	subi	r25, 0x80	; 128
    309e:	44 0f       	add	r20, r20
    30a0:	55 1f       	adc	r21, r21
    30a2:	59 f0       	breq	.+22     	; 0x30ba <__fp_splitA+0x10>
    30a4:	5f 3f       	cpi	r21, 0xFF	; 255
    30a6:	71 f0       	breq	.+28     	; 0x30c4 <__fp_splitA+0x1a>
    30a8:	47 95       	ror	r20

000030aa <__fp_splitA>:
    30aa:	88 0f       	add	r24, r24
    30ac:	97 fb       	bst	r25, 7
    30ae:	99 1f       	adc	r25, r25
    30b0:	61 f0       	breq	.+24     	; 0x30ca <__fp_splitA+0x20>
    30b2:	9f 3f       	cpi	r25, 0xFF	; 255
    30b4:	79 f0       	breq	.+30     	; 0x30d4 <__fp_splitA+0x2a>
    30b6:	87 95       	ror	r24
    30b8:	08 95       	ret
    30ba:	12 16       	cp	r1, r18
    30bc:	13 06       	cpc	r1, r19
    30be:	14 06       	cpc	r1, r20
    30c0:	55 1f       	adc	r21, r21
    30c2:	f2 cf       	rjmp	.-28     	; 0x30a8 <__fp_split3+0xe>
    30c4:	46 95       	lsr	r20
    30c6:	f1 df       	rcall	.-30     	; 0x30aa <__fp_splitA>
    30c8:	08 c0       	rjmp	.+16     	; 0x30da <__fp_splitA+0x30>
    30ca:	16 16       	cp	r1, r22
    30cc:	17 06       	cpc	r1, r23
    30ce:	18 06       	cpc	r1, r24
    30d0:	99 1f       	adc	r25, r25
    30d2:	f1 cf       	rjmp	.-30     	; 0x30b6 <__fp_splitA+0xc>
    30d4:	86 95       	lsr	r24
    30d6:	71 05       	cpc	r23, r1
    30d8:	61 05       	cpc	r22, r1
    30da:	08 94       	sec
    30dc:	08 95       	ret

000030de <__fp_zero>:
    30de:	e8 94       	clt

000030e0 <__fp_szero>:
    30e0:	bb 27       	eor	r27, r27
    30e2:	66 27       	eor	r22, r22
    30e4:	77 27       	eor	r23, r23
    30e6:	cb 01       	movw	r24, r22
    30e8:	97 f9       	bld	r25, 7
    30ea:	08 95       	ret

000030ec <__mulsf3>:
    30ec:	0e 94 89 18 	call	0x3112	; 0x3112 <__mulsf3x>
    30f0:	0c 94 28 18 	jmp	0x3050	; 0x3050 <__fp_round>
    30f4:	0e 94 ef 17 	call	0x2fde	; 0x2fde <__fp_pscA>
    30f8:	38 f0       	brcs	.+14     	; 0x3108 <__mulsf3+0x1c>
    30fa:	0e 94 f6 17 	call	0x2fec	; 0x2fec <__fp_pscB>
    30fe:	20 f0       	brcs	.+8      	; 0x3108 <__mulsf3+0x1c>
    3100:	95 23       	and	r25, r21
    3102:	11 f0       	breq	.+4      	; 0x3108 <__mulsf3+0x1c>
    3104:	0c 94 e6 17 	jmp	0x2fcc	; 0x2fcc <__fp_inf>
    3108:	0c 94 ec 17 	jmp	0x2fd8	; 0x2fd8 <__fp_nan>
    310c:	11 24       	eor	r1, r1
    310e:	0c 94 70 18 	jmp	0x30e0	; 0x30e0 <__fp_szero>

00003112 <__mulsf3x>:
    3112:	0e 94 4d 18 	call	0x309a	; 0x309a <__fp_split3>
    3116:	70 f3       	brcs	.-36     	; 0x30f4 <__mulsf3+0x8>

00003118 <__mulsf3_pse>:
    3118:	95 9f       	mul	r25, r21
    311a:	c1 f3       	breq	.-16     	; 0x310c <__mulsf3+0x20>
    311c:	95 0f       	add	r25, r21
    311e:	50 e0       	ldi	r21, 0x00	; 0
    3120:	55 1f       	adc	r21, r21
    3122:	62 9f       	mul	r22, r18
    3124:	f0 01       	movw	r30, r0
    3126:	72 9f       	mul	r23, r18
    3128:	bb 27       	eor	r27, r27
    312a:	f0 0d       	add	r31, r0
    312c:	b1 1d       	adc	r27, r1
    312e:	63 9f       	mul	r22, r19
    3130:	aa 27       	eor	r26, r26
    3132:	f0 0d       	add	r31, r0
    3134:	b1 1d       	adc	r27, r1
    3136:	aa 1f       	adc	r26, r26
    3138:	64 9f       	mul	r22, r20
    313a:	66 27       	eor	r22, r22
    313c:	b0 0d       	add	r27, r0
    313e:	a1 1d       	adc	r26, r1
    3140:	66 1f       	adc	r22, r22
    3142:	82 9f       	mul	r24, r18
    3144:	22 27       	eor	r18, r18
    3146:	b0 0d       	add	r27, r0
    3148:	a1 1d       	adc	r26, r1
    314a:	62 1f       	adc	r22, r18
    314c:	73 9f       	mul	r23, r19
    314e:	b0 0d       	add	r27, r0
    3150:	a1 1d       	adc	r26, r1
    3152:	62 1f       	adc	r22, r18
    3154:	83 9f       	mul	r24, r19
    3156:	a0 0d       	add	r26, r0
    3158:	61 1d       	adc	r22, r1
    315a:	22 1f       	adc	r18, r18
    315c:	74 9f       	mul	r23, r20
    315e:	33 27       	eor	r19, r19
    3160:	a0 0d       	add	r26, r0
    3162:	61 1d       	adc	r22, r1
    3164:	23 1f       	adc	r18, r19
    3166:	84 9f       	mul	r24, r20
    3168:	60 0d       	add	r22, r0
    316a:	21 1d       	adc	r18, r1
    316c:	82 2f       	mov	r24, r18
    316e:	76 2f       	mov	r23, r22
    3170:	6a 2f       	mov	r22, r26
    3172:	11 24       	eor	r1, r1
    3174:	9f 57       	subi	r25, 0x7F	; 127
    3176:	50 40       	sbci	r21, 0x00	; 0
    3178:	9a f0       	brmi	.+38     	; 0x31a0 <__mulsf3_pse+0x88>
    317a:	f1 f0       	breq	.+60     	; 0x31b8 <__mulsf3_pse+0xa0>
    317c:	88 23       	and	r24, r24
    317e:	4a f0       	brmi	.+18     	; 0x3192 <__mulsf3_pse+0x7a>
    3180:	ee 0f       	add	r30, r30
    3182:	ff 1f       	adc	r31, r31
    3184:	bb 1f       	adc	r27, r27
    3186:	66 1f       	adc	r22, r22
    3188:	77 1f       	adc	r23, r23
    318a:	88 1f       	adc	r24, r24
    318c:	91 50       	subi	r25, 0x01	; 1
    318e:	50 40       	sbci	r21, 0x00	; 0
    3190:	a9 f7       	brne	.-22     	; 0x317c <__mulsf3_pse+0x64>
    3192:	9e 3f       	cpi	r25, 0xFE	; 254
    3194:	51 05       	cpc	r21, r1
    3196:	80 f0       	brcs	.+32     	; 0x31b8 <__mulsf3_pse+0xa0>
    3198:	0c 94 e6 17 	jmp	0x2fcc	; 0x2fcc <__fp_inf>
    319c:	0c 94 70 18 	jmp	0x30e0	; 0x30e0 <__fp_szero>
    31a0:	5f 3f       	cpi	r21, 0xFF	; 255
    31a2:	e4 f3       	brlt	.-8      	; 0x319c <__mulsf3_pse+0x84>
    31a4:	98 3e       	cpi	r25, 0xE8	; 232
    31a6:	d4 f3       	brlt	.-12     	; 0x319c <__mulsf3_pse+0x84>
    31a8:	86 95       	lsr	r24
    31aa:	77 95       	ror	r23
    31ac:	67 95       	ror	r22
    31ae:	b7 95       	ror	r27
    31b0:	f7 95       	ror	r31
    31b2:	e7 95       	ror	r30
    31b4:	9f 5f       	subi	r25, 0xFF	; 255
    31b6:	c1 f7       	brne	.-16     	; 0x31a8 <__mulsf3_pse+0x90>
    31b8:	fe 2b       	or	r31, r30
    31ba:	88 0f       	add	r24, r24
    31bc:	91 1d       	adc	r25, r1
    31be:	96 95       	lsr	r25
    31c0:	87 95       	ror	r24
    31c2:	97 f9       	bld	r25, 7
    31c4:	08 95       	ret

000031c6 <sin>:
    31c6:	9f 93       	push	r25
    31c8:	0e 94 ff 17 	call	0x2ffe	; 0x2ffe <__fp_rempio2>
    31cc:	0f 90       	pop	r0
    31ce:	07 fc       	sbrc	r0, 7
    31d0:	ee 5f       	subi	r30, 0xFE	; 254
    31d2:	0c 94 39 18 	jmp	0x3072	; 0x3072 <__fp_sinus>

000031d6 <__fp_mpack>:
    31d6:	9f 3f       	cpi	r25, 0xFF	; 255
    31d8:	31 f0       	breq	.+12     	; 0x31e6 <__fp_mpack_finite+0xc>

000031da <__fp_mpack_finite>:
    31da:	91 50       	subi	r25, 0x01	; 1
    31dc:	20 f4       	brcc	.+8      	; 0x31e6 <__fp_mpack_finite+0xc>
    31de:	87 95       	ror	r24
    31e0:	77 95       	ror	r23
    31e2:	67 95       	ror	r22
    31e4:	b7 95       	ror	r27
    31e6:	88 0f       	add	r24, r24
    31e8:	91 1d       	adc	r25, r1
    31ea:	96 95       	lsr	r25
    31ec:	87 95       	ror	r24
    31ee:	97 f9       	bld	r25, 7
    31f0:	08 95       	ret

000031f2 <__fp_powsodd>:
    31f2:	9f 93       	push	r25
    31f4:	8f 93       	push	r24
    31f6:	7f 93       	push	r23
    31f8:	6f 93       	push	r22
    31fa:	ff 93       	push	r31
    31fc:	ef 93       	push	r30
    31fe:	9b 01       	movw	r18, r22
    3200:	ac 01       	movw	r20, r24
    3202:	0e 94 76 18 	call	0x30ec	; 0x30ec <__mulsf3>
    3206:	ef 91       	pop	r30
    3208:	ff 91       	pop	r31
    320a:	0e 94 0d 19 	call	0x321a	; 0x321a <__fp_powser>
    320e:	2f 91       	pop	r18
    3210:	3f 91       	pop	r19
    3212:	4f 91       	pop	r20
    3214:	5f 91       	pop	r21
    3216:	0c 94 76 18 	jmp	0x30ec	; 0x30ec <__mulsf3>

0000321a <__fp_powser>:
    321a:	df 93       	push	r29
    321c:	cf 93       	push	r28
    321e:	1f 93       	push	r17
    3220:	0f 93       	push	r16
    3222:	ff 92       	push	r15
    3224:	ef 92       	push	r14
    3226:	df 92       	push	r13
    3228:	7b 01       	movw	r14, r22
    322a:	8c 01       	movw	r16, r24
    322c:	68 94       	set
    322e:	06 c0       	rjmp	.+12     	; 0x323c <__fp_powser+0x22>
    3230:	da 2e       	mov	r13, r26
    3232:	ef 01       	movw	r28, r30
    3234:	0e 94 89 18 	call	0x3112	; 0x3112 <__mulsf3x>
    3238:	fe 01       	movw	r30, r28
    323a:	e8 94       	clt
    323c:	a5 91       	lpm	r26, Z+
    323e:	25 91       	lpm	r18, Z+
    3240:	35 91       	lpm	r19, Z+
    3242:	45 91       	lpm	r20, Z+
    3244:	55 91       	lpm	r21, Z+
    3246:	a6 f3       	brts	.-24     	; 0x3230 <__fp_powser+0x16>
    3248:	ef 01       	movw	r28, r30
    324a:	0e 94 19 17 	call	0x2e32	; 0x2e32 <__addsf3x>
    324e:	fe 01       	movw	r30, r28
    3250:	97 01       	movw	r18, r14
    3252:	a8 01       	movw	r20, r16
    3254:	da 94       	dec	r13
    3256:	69 f7       	brne	.-38     	; 0x3232 <__fp_powser+0x18>
    3258:	df 90       	pop	r13
    325a:	ef 90       	pop	r14
    325c:	ff 90       	pop	r15
    325e:	0f 91       	pop	r16
    3260:	1f 91       	pop	r17
    3262:	cf 91       	pop	r28
    3264:	df 91       	pop	r29
    3266:	08 95       	ret

00003268 <__mulsi3>:
    3268:	db 01       	movw	r26, r22
    326a:	8f 93       	push	r24
    326c:	9f 93       	push	r25
    326e:	0e 94 66 19 	call	0x32cc	; 0x32cc <__muluhisi3>
    3272:	bf 91       	pop	r27
    3274:	af 91       	pop	r26
    3276:	a2 9f       	mul	r26, r18
    3278:	80 0d       	add	r24, r0
    327a:	91 1d       	adc	r25, r1
    327c:	a3 9f       	mul	r26, r19
    327e:	90 0d       	add	r25, r0
    3280:	b2 9f       	mul	r27, r18
    3282:	90 0d       	add	r25, r0
    3284:	11 24       	eor	r1, r1
    3286:	08 95       	ret

00003288 <__udivmodsi4>:
    3288:	a1 e2       	ldi	r26, 0x21	; 33
    328a:	1a 2e       	mov	r1, r26
    328c:	aa 1b       	sub	r26, r26
    328e:	bb 1b       	sub	r27, r27
    3290:	fd 01       	movw	r30, r26
    3292:	0d c0       	rjmp	.+26     	; 0x32ae <__udivmodsi4_ep>

00003294 <__udivmodsi4_loop>:
    3294:	aa 1f       	adc	r26, r26
    3296:	bb 1f       	adc	r27, r27
    3298:	ee 1f       	adc	r30, r30
    329a:	ff 1f       	adc	r31, r31
    329c:	a2 17       	cp	r26, r18
    329e:	b3 07       	cpc	r27, r19
    32a0:	e4 07       	cpc	r30, r20
    32a2:	f5 07       	cpc	r31, r21
    32a4:	20 f0       	brcs	.+8      	; 0x32ae <__udivmodsi4_ep>
    32a6:	a2 1b       	sub	r26, r18
    32a8:	b3 0b       	sbc	r27, r19
    32aa:	e4 0b       	sbc	r30, r20
    32ac:	f5 0b       	sbc	r31, r21

000032ae <__udivmodsi4_ep>:
    32ae:	66 1f       	adc	r22, r22
    32b0:	77 1f       	adc	r23, r23
    32b2:	88 1f       	adc	r24, r24
    32b4:	99 1f       	adc	r25, r25
    32b6:	1a 94       	dec	r1
    32b8:	69 f7       	brne	.-38     	; 0x3294 <__udivmodsi4_loop>
    32ba:	60 95       	com	r22
    32bc:	70 95       	com	r23
    32be:	80 95       	com	r24
    32c0:	90 95       	com	r25
    32c2:	9b 01       	movw	r18, r22
    32c4:	ac 01       	movw	r20, r24
    32c6:	bd 01       	movw	r22, r26
    32c8:	cf 01       	movw	r24, r30
    32ca:	08 95       	ret

000032cc <__muluhisi3>:
    32cc:	0e 94 7f 19 	call	0x32fe	; 0x32fe <__umulhisi3>
    32d0:	a5 9f       	mul	r26, r21
    32d2:	90 0d       	add	r25, r0
    32d4:	b4 9f       	mul	r27, r20
    32d6:	90 0d       	add	r25, r0
    32d8:	a4 9f       	mul	r26, r20
    32da:	80 0d       	add	r24, r0
    32dc:	91 1d       	adc	r25, r1
    32de:	11 24       	eor	r1, r1
    32e0:	08 95       	ret

000032e2 <__mulshisi3>:
    32e2:	b7 ff       	sbrs	r27, 7
    32e4:	0c 94 66 19 	jmp	0x32cc	; 0x32cc <__muluhisi3>

000032e8 <__mulohisi3>:
    32e8:	0e 94 66 19 	call	0x32cc	; 0x32cc <__muluhisi3>
    32ec:	82 1b       	sub	r24, r18
    32ee:	93 0b       	sbc	r25, r19
    32f0:	08 95       	ret

000032f2 <__tablejump2__>:
    32f2:	ee 0f       	add	r30, r30
    32f4:	ff 1f       	adc	r31, r31
    32f6:	05 90       	lpm	r0, Z+
    32f8:	f4 91       	lpm	r31, Z
    32fa:	e0 2d       	mov	r30, r0
    32fc:	09 94       	ijmp

000032fe <__umulhisi3>:
    32fe:	a2 9f       	mul	r26, r18
    3300:	b0 01       	movw	r22, r0
    3302:	b3 9f       	mul	r27, r19
    3304:	c0 01       	movw	r24, r0
    3306:	a3 9f       	mul	r26, r19
    3308:	70 0d       	add	r23, r0
    330a:	81 1d       	adc	r24, r1
    330c:	11 24       	eor	r1, r1
    330e:	91 1d       	adc	r25, r1
    3310:	b2 9f       	mul	r27, r18
    3312:	70 0d       	add	r23, r0
    3314:	81 1d       	adc	r24, r1
    3316:	11 24       	eor	r1, r1
    3318:	91 1d       	adc	r25, r1
    331a:	08 95       	ret

0000331c <do_rand>:
    331c:	8f 92       	push	r8
    331e:	9f 92       	push	r9
    3320:	af 92       	push	r10
    3322:	bf 92       	push	r11
    3324:	cf 92       	push	r12
    3326:	df 92       	push	r13
    3328:	ef 92       	push	r14
    332a:	ff 92       	push	r15
    332c:	cf 93       	push	r28
    332e:	df 93       	push	r29
    3330:	ec 01       	movw	r28, r24
    3332:	68 81       	ld	r22, Y
    3334:	79 81       	ldd	r23, Y+1	; 0x01
    3336:	8a 81       	ldd	r24, Y+2	; 0x02
    3338:	9b 81       	ldd	r25, Y+3	; 0x03
    333a:	61 15       	cp	r22, r1
    333c:	71 05       	cpc	r23, r1
    333e:	81 05       	cpc	r24, r1
    3340:	91 05       	cpc	r25, r1
    3342:	21 f4       	brne	.+8      	; 0x334c <do_rand+0x30>
    3344:	64 e2       	ldi	r22, 0x24	; 36
    3346:	79 ed       	ldi	r23, 0xD9	; 217
    3348:	8b e5       	ldi	r24, 0x5B	; 91
    334a:	97 e0       	ldi	r25, 0x07	; 7
    334c:	2d e1       	ldi	r18, 0x1D	; 29
    334e:	33 ef       	ldi	r19, 0xF3	; 243
    3350:	41 e0       	ldi	r20, 0x01	; 1
    3352:	50 e0       	ldi	r21, 0x00	; 0
    3354:	0e 94 ea 19 	call	0x33d4	; 0x33d4 <__divmodsi4>
    3358:	49 01       	movw	r8, r18
    335a:	5a 01       	movw	r10, r20
    335c:	9b 01       	movw	r18, r22
    335e:	ac 01       	movw	r20, r24
    3360:	a7 ea       	ldi	r26, 0xA7	; 167
    3362:	b1 e4       	ldi	r27, 0x41	; 65
    3364:	0e 94 66 19 	call	0x32cc	; 0x32cc <__muluhisi3>
    3368:	6b 01       	movw	r12, r22
    336a:	7c 01       	movw	r14, r24
    336c:	ac ee       	ldi	r26, 0xEC	; 236
    336e:	b4 ef       	ldi	r27, 0xF4	; 244
    3370:	a5 01       	movw	r20, r10
    3372:	94 01       	movw	r18, r8
    3374:	0e 94 74 19 	call	0x32e8	; 0x32e8 <__mulohisi3>
    3378:	dc 01       	movw	r26, r24
    337a:	cb 01       	movw	r24, r22
    337c:	8c 0d       	add	r24, r12
    337e:	9d 1d       	adc	r25, r13
    3380:	ae 1d       	adc	r26, r14
    3382:	bf 1d       	adc	r27, r15
    3384:	b7 ff       	sbrs	r27, 7
    3386:	03 c0       	rjmp	.+6      	; 0x338e <do_rand+0x72>
    3388:	01 97       	sbiw	r24, 0x01	; 1
    338a:	a1 09       	sbc	r26, r1
    338c:	b0 48       	sbci	r27, 0x80	; 128
    338e:	88 83       	st	Y, r24
    3390:	99 83       	std	Y+1, r25	; 0x01
    3392:	aa 83       	std	Y+2, r26	; 0x02
    3394:	bb 83       	std	Y+3, r27	; 0x03
    3396:	9f 77       	andi	r25, 0x7F	; 127
    3398:	df 91       	pop	r29
    339a:	cf 91       	pop	r28
    339c:	ff 90       	pop	r15
    339e:	ef 90       	pop	r14
    33a0:	df 90       	pop	r13
    33a2:	cf 90       	pop	r12
    33a4:	bf 90       	pop	r11
    33a6:	af 90       	pop	r10
    33a8:	9f 90       	pop	r9
    33aa:	8f 90       	pop	r8
    33ac:	08 95       	ret

000033ae <rand_r>:
    33ae:	0e 94 8e 19 	call	0x331c	; 0x331c <do_rand>
    33b2:	08 95       	ret

000033b4 <rand>:
    33b4:	80 e6       	ldi	r24, 0x60	; 96
    33b6:	90 e0       	ldi	r25, 0x00	; 0
    33b8:	0e 94 8e 19 	call	0x331c	; 0x331c <do_rand>
    33bc:	08 95       	ret

000033be <srand>:
    33be:	a0 e0       	ldi	r26, 0x00	; 0
    33c0:	b0 e0       	ldi	r27, 0x00	; 0
    33c2:	80 93 60 00 	sts	0x0060, r24	; 0x800060 <__DATA_REGION_ORIGIN__>
    33c6:	90 93 61 00 	sts	0x0061, r25	; 0x800061 <__DATA_REGION_ORIGIN__+0x1>
    33ca:	a0 93 62 00 	sts	0x0062, r26	; 0x800062 <__DATA_REGION_ORIGIN__+0x2>
    33ce:	b0 93 63 00 	sts	0x0063, r27	; 0x800063 <__DATA_REGION_ORIGIN__+0x3>
    33d2:	08 95       	ret

000033d4 <__divmodsi4>:
    33d4:	05 2e       	mov	r0, r21
    33d6:	97 fb       	bst	r25, 7
    33d8:	1e f4       	brtc	.+6      	; 0x33e0 <__divmodsi4+0xc>
    33da:	00 94       	com	r0
    33dc:	0e 94 01 1a 	call	0x3402	; 0x3402 <__negsi2>
    33e0:	57 fd       	sbrc	r21, 7
    33e2:	07 d0       	rcall	.+14     	; 0x33f2 <__divmodsi4_neg2>
    33e4:	0e 94 44 19 	call	0x3288	; 0x3288 <__udivmodsi4>
    33e8:	07 fc       	sbrc	r0, 7
    33ea:	03 d0       	rcall	.+6      	; 0x33f2 <__divmodsi4_neg2>
    33ec:	4e f4       	brtc	.+18     	; 0x3400 <__divmodsi4_exit>
    33ee:	0c 94 01 1a 	jmp	0x3402	; 0x3402 <__negsi2>

000033f2 <__divmodsi4_neg2>:
    33f2:	50 95       	com	r21
    33f4:	40 95       	com	r20
    33f6:	30 95       	com	r19
    33f8:	21 95       	neg	r18
    33fa:	3f 4f       	sbci	r19, 0xFF	; 255
    33fc:	4f 4f       	sbci	r20, 0xFF	; 255
    33fe:	5f 4f       	sbci	r21, 0xFF	; 255

00003400 <__divmodsi4_exit>:
    3400:	08 95       	ret

00003402 <__negsi2>:
    3402:	90 95       	com	r25
    3404:	80 95       	com	r24
    3406:	70 95       	com	r23
    3408:	61 95       	neg	r22
    340a:	7f 4f       	sbci	r23, 0xFF	; 255
    340c:	8f 4f       	sbci	r24, 0xFF	; 255
    340e:	9f 4f       	sbci	r25, 0xFF	; 255
    3410:	08 95       	ret

00003412 <_exit>:
    3412:	f8 94       	cli

00003414 <__stop_program>:
    3414:	ff cf       	rjmp	.-2      	; 0x3414 <__stop_program>
