
FlappyBird.elf:     file format elf32-avr

Sections:
Idx Name          Size      VMA       LMA       File off  Algn
  0 .text         0000252a  00000000  00000000  00000094  2**1
                  CONTENTS, ALLOC, LOAD, READONLY, CODE
  1 .data         00000010  00800060  0000252a  000025be  2**0
                  CONTENTS, ALLOC, LOAD, DATA
  2 .bss          000001a5  00800070  00800070  000025ce  2**0
                  ALLOC
  3 .comment      00000030  00000000  00000000  000025ce  2**0
                  CONTENTS, READONLY
  4 .note.gnu.avr.deviceinfo 0000003c  00000000  00000000  00002600  2**2
                  CONTENTS, READONLY
  5 .debug_aranges 00000238  00000000  00000000  00002640  2**3
                  CONTENTS, READONLY, DEBUGGING
  6 .debug_info   00005710  00000000  00000000  00002878  2**0
                  CONTENTS, READONLY, DEBUGGING
  7 .debug_abbrev 00000c94  00000000  00000000  00007f88  2**0
                  CONTENTS, READONLY, DEBUGGING
  8 .debug_line   00001c9e  00000000  00000000  00008c1c  2**0
                  CONTENTS, READONLY, DEBUGGING
  9 .debug_frame  00000928  00000000  00000000  0000a8bc  2**2
                  CONTENTS, READONLY, DEBUGGING
 10 .debug_str    00000d42  00000000  00000000  0000b1e4  2**0
                  CONTENTS, READONLY, DEBUGGING
 11 .debug_loc    00003eb0  00000000  00000000  0000bf26  2**0
                  CONTENTS, READONLY, DEBUGGING
 12 .debug_ranges 000001d8  00000000  00000000  0000fdd6  2**0
                  CONTENTS, READONLY, DEBUGGING

Disassembly of section .text:

00000000 <__vectors>:
       0:	0c 94 2c 06 	jmp	0xc58	; 0xc58 <__ctors_end>
       4:	0c 94 54 06 	jmp	0xca8	; 0xca8 <__bad_interrupt>
       8:	0c 94 54 06 	jmp	0xca8	; 0xca8 <__bad_interrupt>
       c:	0c 94 54 06 	jmp	0xca8	; 0xca8 <__bad_interrupt>
      10:	0c 94 54 06 	jmp	0xca8	; 0xca8 <__bad_interrupt>
      14:	0c 94 54 06 	jmp	0xca8	; 0xca8 <__bad_interrupt>
      18:	0c 94 54 06 	jmp	0xca8	; 0xca8 <__bad_interrupt>
      1c:	0c 94 54 06 	jmp	0xca8	; 0xca8 <__bad_interrupt>
      20:	0c 94 54 06 	jmp	0xca8	; 0xca8 <__bad_interrupt>
      24:	0c 94 54 06 	jmp	0xca8	; 0xca8 <__bad_interrupt>
      28:	0c 94 54 06 	jmp	0xca8	; 0xca8 <__bad_interrupt>
      2c:	0c 94 54 06 	jmp	0xca8	; 0xca8 <__bad_interrupt>
      30:	0c 94 54 06 	jmp	0xca8	; 0xca8 <__bad_interrupt>
      34:	0c 94 54 06 	jmp	0xca8	; 0xca8 <__bad_interrupt>
      38:	0c 94 54 06 	jmp	0xca8	; 0xca8 <__bad_interrupt>
      3c:	0c 94 54 06 	jmp	0xca8	; 0xca8 <__bad_interrupt>
      40:	0c 94 54 06 	jmp	0xca8	; 0xca8 <__bad_interrupt>
      44:	0c 94 54 06 	jmp	0xca8	; 0xca8 <__bad_interrupt>
      48:	0c 94 54 06 	jmp	0xca8	; 0xca8 <__bad_interrupt>
      4c:	0c 94 54 06 	jmp	0xca8	; 0xca8 <__bad_interrupt>
      50:	0c 94 54 06 	jmp	0xca8	; 0xca8 <__bad_interrupt>
      54:	05 a8       	ldd	r0, Z+53	; 0x35
      56:	4c cd       	rjmp	.-1384   	; 0xfffffaf0 <__eeprom_end+0xff7efaf0>
      58:	b2 d4       	rcall	.+2404   	; 0x9be <__stack+0x55f>
      5a:	4e b9       	out	0x0e, r20	; 14
      5c:	38 36       	cpi	r19, 0x68	; 104
      5e:	a9 02       	muls	r26, r25
      60:	0c 50       	subi	r16, 0x0C	; 12
      62:	b9 91       	ld	r27, Y+
      64:	86 88       	ldd	r8, Z+22	; 0x16
      66:	08 3c       	cpi	r16, 0xC8	; 200
      68:	a6 aa       	std	Z+54, r10	; 0x36
      6a:	aa 2a       	or	r10, r26
      6c:	be 00       	.word	0x00be	; ????
      6e:	00 00       	nop
      70:	80 3f       	cpi	r24, 0xF0	; 240

00000072 <BigFont>:
      72:	10 10 20 5f 00 00 00 00 00 00 00 00 00 00 00 00     .. _............
	...
      9a:	07 00 0f 80 0f 80 0f 80 0f 80 0f 80 07 00 07 00     ................
      aa:	00 00 00 00 07 00 07 00 07 00 00 00 00 00 0e 38     ...............8
      ba:	0e 38 0e 38 0e 38 06 30 00 00 00 00 00 00 00 00     .8.8.8.0........
	...
      d6:	00 00 0c 30 0c 30 0c 30 7f fe 7f fe 0c 30 0c 30     ...0.0.0.....0.0
      e6:	0c 30 0c 30 7f fe 7f fe 0c 30 0c 30 0c 30 00 00     .0.0.....0.0.0..
      f6:	00 00 02 40 02 40 0f f8 1f f8 1a 40 1a 40 1f f0     ...@.@.....@.@..
     106:	0f f8 02 58 02 58 1f f8 1f f0 02 40 02 40 00 00     ...X.X.....@.@..
     116:	00 00 00 00 00 00 0e 10 0e 30 0e 70 00 e0 01 c0     .........0.p....
     126:	03 80 07 00 0e 70 0c 70 08 70 00 00 00 00 00 00     .....p.p.p......
     136:	00 00 00 00 0f 00 19 80 19 80 19 80 0f 00 0f 08     ................
     146:	0f 98 19 f8 18 f0 18 e0 19 f0 0f 98 00 00 00 00     ................
     156:	00 00 00 00 07 00 07 00 07 00 0e 00 00 00 00 00     ................
	...
     17a:	00 f0 01 c0 03 80 07 00 0e 00 0e 00 0e 00 0e 00     ................
     18a:	07 00 03 80 01 c0 00 f0 00 00 00 00 00 00 00 00     ................
     19a:	0f 00 03 80 01 c0 00 e0 00 70 00 70 00 70 00 70     .........p.p.p.p
     1aa:	00 e0 01 c0 03 80 0f 00 00 00 00 00 00 00 00 00     ................
     1ba:	01 80 11 88 09 90 07 e0 07 e0 3f fc 3f fc 07 e0     ..........?.?...
     1ca:	07 e0 09 90 11 88 01 80 00 00 00 00 00 00 00 00     ................
     1da:	00 00 00 00 01 80 01 80 01 80 0f f0 0f f0 01 80     ................
     1ea:	01 80 01 80 00 00 00 00 00 00 00 00 00 00 00 00     ................
	...
     20a:	00 00 07 00 07 00 07 00 0e 00 00 00 00 00 00 00     ................
	...
     222:	00 00 1f f8 1f f8 00 00 00 00 00 00 00 00 00 00     ................
	...
     24a:	00 00 07 00 07 00 07 00 00 00 00 00 00 00 00 00     ................
     25a:	00 02 00 06 00 0e 00 1c 00 38 00 70 00 e0 01 c0     .........8.p....
     26a:	03 80 07 00 0e 00 1c 00 00 00 00 00 00 00 00 00     ................
     27a:	0f f0 1c 38 1c 78 1c f8 1c f8 1d b8 1d b8 1f 38     ...8.x.........8
     28a:	1f 38 1e 38 1c 38 0f f0 00 00 00 00 00 00 00 00     .8.8.8..........
     29a:	01 80 01 80 03 80 1f 80 1f 80 03 80 03 80 03 80     ................
     2aa:	03 80 03 80 03 80 1f f0 00 00 00 00 00 00 00 00     ................
     2ba:	0f e0 1c 70 1c 38 00 38 00 70 00 e0 01 c0 03 80     ...p.8.8.p......
     2ca:	07 00 0e 38 1c 38 1f f8 00 00 00 00 00 00 00 00     ...8.8..........
     2da:	0f e0 1c 70 1c 38 00 38 00 70 03 c0 03 c0 00 70     ...p.8.8.p.....p
     2ea:	00 38 1c 38 1c 70 0f e0 00 00 00 00 00 00 00 00     .8.8.p..........
     2fa:	00 e0 01 e0 03 e0 06 e0 0c e0 18 e0 1f f8 1f f8     ................
     30a:	00 e0 00 e0 00 e0 03 f8 00 00 00 00 00 00 00 00     ................
     31a:	1f f8 1c 00 1c 00 1c 00 1c 00 1f e0 1f f0 00 78     ...............x
     32a:	00 38 1c 38 1c 70 0f e0 00 00 00 00 00 00 00 00     .8.8.p..........
     33a:	03 e0 07 00 0e 00 1c 00 1c 00 1f f0 1f f8 1c 38     ...............8
     34a:	1c 38 1c 38 1c 38 0f f0 00 00 00 00 00 00 00 00     .8.8.8..........
     35a:	1f fc 1c 1c 1c 1c 1c 1c 00 1c 00 38 00 70 00 e0     ...........8.p..
     36a:	01 c0 03 80 03 80 03 80 00 00 00 00 00 00 00 00     ................
     37a:	0f f0 1c 38 1c 38 1c 38 1f 38 07 e0 07 e0 1c f8     ...8.8.8.8......
     38a:	1c 38 1c 38 1c 38 0f f0 00 00 00 00 00 00 00 00     .8.8.8..........
     39a:	0f f0 1c 38 1c 38 1c 38 1c 38 1f f8 0f f8 00 38     ...8.8.8.8.....8
     3aa:	00 38 00 70 00 e0 07 c0 00 00 00 00 00 00 00 00     .8.p............
     3ba:	00 00 00 00 03 80 03 80 03 80 00 00 00 00 03 80     ................
     3ca:	03 80 03 80 00 00 00 00 00 00 00 00 00 00 00 00     ................
     3da:	00 00 00 00 03 80 03 80 03 80 00 00 00 00 03 80     ................
     3ea:	03 80 03 80 07 00 00 00 00 00 00 00 00 00 00 70     ...............p
     3fa:	00 e0 01 c0 03 80 07 00 0e 00 1c 00 1c 00 0e 00     ................
     40a:	07 00 03 80 01 c0 00 e0 00 70 00 00 00 00 00 00     .........p......
     41a:	00 00 00 00 00 00 3f fc 3f fc 00 00 00 00 3f fc     ......?.?.....?.
     42a:	3f fc 00 00 00 00 00 00 00 00 00 00 00 00 1c 00     ?...............
     43a:	0e 00 07 00 03 80 01 c0 00 e0 00 70 00 70 00 e0     ...........p.p..
     44a:	01 c0 03 80 07 00 0e 00 1c 00 00 00 00 00 03 c0     ................
     45a:	0f f0 1e 78 18 38 00 38 00 70 00 e0 01 c0 01 c0     ...x.8.8.p......
     46a:	00 00 00 00 01 c0 01 c0 01 c0 00 00 00 00 0f f8     ................
     47a:	1c 1c 1c 1c 1c 1c 1c 1c 1c fc 1c fc 1c fc 1c fc     ................
     48a:	1c 00 1c 00 1c 00 1f f0 07 f8 00 00 00 00 00 00     ................
     49a:	03 c0 07 e0 0e 70 1c 38 1c 38 1c 38 1c 38 1f f8     .....p.8.8.8.8..
     4aa:	1c 38 1c 38 1c 38 1c 38 00 00 00 00 00 00 00 00     .8.8.8.8........
     4ba:	1f f0 0e 38 0e 38 0e 38 0e 38 0f f0 0f f0 0e 38     ...8.8.8.8.....8
     4ca:	0e 38 0e 38 0e 38 1f f0 00 00 00 00 00 00 00 00     .8.8.8..........
     4da:	07 f0 0e 38 1c 38 1c 00 1c 00 1c 00 1c 00 1c 00     ...8.8..........
     4ea:	1c 00 1c 38 0e 38 07 f0 00 00 00 00 00 00 00 00     ...8.8..........
     4fa:	1f e0 0e 70 0e 38 0e 38 0e 38 0e 38 0e 38 0e 38     ...p.8.8.8.8.8.8
     50a:	0e 38 0e 38 0e 70 1f e0 00 00 00 00 00 00 00 00     .8.8.p..........
     51a:	1f f8 0e 18 0e 08 0e 00 0e 30 0f f0 0f f0 0e 30     .........0.....0
     52a:	0e 00 0e 08 0e 18 1f f8 00 00 00 00 00 00 00 00     ................
     53a:	1f f8 0e 18 0e 08 0e 00 0e 30 0f f0 0f f0 0e 30     .........0.....0
     54a:	0e 00 0e 00 0e 00 1f 00 00 00 00 00 00 00 00 00     ................
     55a:	07 f0 0e 38 1c 38 1c 38 1c 00 1c 00 1c 00 1c f8     ...8.8.8........
     56a:	1c 38 1c 38 0e 38 07 f8 00 00 00 00 00 00 00 00     .8.8.8..........
     57a:	1c 70 1c 70 1c 70 1c 70 1c 70 1f f0 1f f0 1c 70     .p.p.p.p.p.....p
     58a:	1c 70 1c 70 1c 70 1c 70 00 00 00 00 00 00 00 00     .p.p.p.p........
     59a:	0f e0 03 80 03 80 03 80 03 80 03 80 03 80 03 80     ................
     5aa:	03 80 03 80 03 80 0f e0 00 00 00 00 00 00 00 00     ................
     5ba:	01 fc 00 70 00 70 00 70 00 70 00 70 00 70 38 70     ...p.p.p.p.p.p8p
     5ca:	38 70 38 70 38 70 0f e0 00 00 00 00 00 00 00 00     8p8p8p..........
     5da:	1e 38 0e 38 0e 70 0e e0 0f c0 0f 80 0f 80 0f c0     .8.8.p..........
     5ea:	0e e0 0e 70 0e 38 1e 38 00 00 00 00 00 00 00 00     ...p.8.8........
     5fa:	1f 00 0e 00 0e 00 0e 00 0e 00 0e 00 0e 00 0e 00     ................
     60a:	0e 08 0e 18 0e 38 1f f8 00 00 00 00 00 00 00 00     .....8..........
     61a:	1c 1c 1e 3c 1f 7c 1f fc 1f fc 1d dc 1c 9c 1c 1c     ...<.|..........
     62a:	1c 1c 1c 1c 1c 1c 1c 1c 00 00 00 00 00 00 00 00     ................
     63a:	1c 1c 1c 1c 1e 1c 1f 1c 1f 9c 1d dc 1c fc 1c 7c     ...............|
     64a:	1c 3c 1c 1c 1c 1c 1c 1c 00 00 00 00 00 00 00 00     .<..............
     65a:	03 e0 07 f0 0e 38 1c 1c 1c 1c 1c 1c 1c 1c 1c 1c     .....8..........
     66a:	1c 1c 0e 38 07 f0 03 e0 00 00 00 00 00 00 00 00     ...8............
     67a:	1f f0 0e 38 0e 38 0e 38 0e 38 0f f0 0f f0 0e 00     ...8.8.8.8......
     68a:	0e 00 0e 00 0e 00 1f 00 00 00 00 00 00 00 00 00     ................
     69a:	03 e0 0f 78 0e 38 1c 1c 1c 1c 1c 1c 1c 1c 1c 7c     ...x.8.........|
     6aa:	1c fc 0f f8 0f f8 00 38 00 fc 00 00 00 00 00 00     .......8........
     6ba:	1f f0 0e 38 0e 38 0e 38 0e 38 0f f0 0f f0 0e 70     ...8.8.8.8.....p
     6ca:	0e 38 0e 38 0e 38 1e 38 00 00 00 00 00 00 00 00     .8.8.8.8........
     6da:	0f f0 1c 38 1c 38 1c 38 1c 00 0f e0 07 f0 00 38     ...8.8.8.......8
     6ea:	1c 38 1c 38 1c 38 0f f0 00 00 00 00 00 00 00 00     .8.8.8..........
     6fa:	1f fc 19 cc 11 c4 01 c0 01 c0 01 c0 01 c0 01 c0     ................
     70a:	01 c0 01 c0 01 c0 07 f0 00 00 00 00 00 00 00 00     ................
     71a:	1c 70 1c 70 1c 70 1c 70 1c 70 1c 70 1c 70 1c 70     .p.p.p.p.p.p.p.p
     72a:	1c 70 1c 70 1c 70 0f e0 00 00 00 00 00 00 00 00     .p.p.p..........
     73a:	1c 70 1c 70 1c 70 1c 70 1c 70 1c 70 1c 70 1c 70     .p.p.p.p.p.p.p.p
     74a:	1c 70 0e e0 07 c0 03 80 00 00 00 00 00 00 00 00     .p..............
     75a:	1c 1c 1c 1c 1c 1c 1c 1c 1c 1c 1c 9c 1c 9c 1c 9c     ................
     76a:	0f f8 0f f8 07 70 07 70 00 00 00 00 00 00 00 00     .....p.p........
     77a:	1c 70 1c 70 1c 70 0e e0 07 c0 03 80 03 80 07 c0     .p.p.p..........
     78a:	0e e0 1c 70 1c 70 1c 70 00 00 00 00 00 00 00 00     ...p.p.p........
     79a:	1c 70 1c 70 1c 70 1c 70 1c 70 0e e0 07 c0 03 80     .p.p.p.p.p......
     7aa:	03 80 03 80 03 80 0f e0 00 00 00 00 00 00 00 00     ................
     7ba:	1f f8 1c 38 18 38 10 70 00 e0 01 c0 03 80 07 00     ...8.8.p........
     7ca:	0e 08 1c 18 1c 38 1f f8 00 00 00 00 00 00 00 00     .....8..........
     7da:	07 f0 07 00 07 00 07 00 07 00 07 00 07 00 07 00     ................
     7ea:	07 00 07 00 07 00 07 f0 00 00 00 00 00 00 00 00     ................
     7fa:	10 00 18 00 1c 00 0e 00 07 00 03 80 01 c0 00 e0     ................
     80a:	00 70 00 38 00 1c 00 07 00 00 00 00 00 00 00 00     .p.8............
     81a:	07 f0 00 70 00 70 00 70 00 70 00 70 00 70 00 70     ...p.p.p.p.p.p.p
     82a:	00 70 00 70 00 70 07 f0 00 00 00 00 00 00 01 80     .p.p.p..........
     83a:	03 c0 07 e0 0e 70 1c 38 00 00 00 00 00 00 00 00     .....p.8........
	...
     872:	7f ff 7f ff 00 00 00 00 1c 00 1c 00 07 00 07 00     ................
	...
     8a2:	0f e0 00 70 00 70 0f f0 1c 70 1c 70 1c 70 0f d8     ...p.p...p.p.p..
	...
     8ba:	1e 00 0e 00 0e 00 0e 00 0f f0 0e 38 0e 38 0e 38     ...........8.8.8
     8ca:	0e 38 0e 38 0e 38 1b f0 00 00 00 00 00 00 00 00     .8.8.8..........
	...
     8e2:	0f e0 1c 70 1c 70 1c 00 1c 00 1c 70 1c 70 0f e0     ...p.p.....p.p..
	...
     8fa:	00 f8 00 70 00 70 00 70 0f f0 1c 70 1c 70 1c 70     ...p.p.p...p.p.p
     90a:	1c 70 1c 70 1c 70 0f d8 00 00 00 00 00 00 00 00     .p.p.p..........
	...
     922:	0f e0 1c 70 1c 70 1f f0 1c 00 1c 70 1c 70 0f e0     ...p.p.....p.p..
	...
     93a:	03 e0 07 70 07 70 07 00 07 00 1f e0 1f e0 07 00     ...p.p..........
     94a:	07 00 07 00 07 00 1f c0 00 00 00 00 00 00 00 00     ................
	...
     962:	0f d8 1c 70 1c 70 1c 70 1c 70 0f f0 07 f0 00 70     ...p.p.p.p.....p
     972:	1c 70 0f e0 00 00 00 00 1e 00 0e 00 0e 00 0e 00     .p..............
     982:	0e f0 0f 38 0f 38 0e 38 0e 38 0e 38 0e 38 1e 38     ...8.8.8.8.8.8.8
	...
     99a:	01 c0 01 c0 01 c0 00 00 0f c0 01 c0 01 c0 01 c0     ................
     9aa:	01 c0 01 c0 01 c0 0f f8 00 00 00 00 00 00 00 00     ................
     9ba:	00 70 00 70 00 70 00 00 03 f0 00 70 00 70 00 70     .p.p.p.....p.p.p
     9ca:	00 70 00 70 00 70 1c 70 0c f0 07 e0 00 00 00 00     .p.p.p.p........
     9da:	1e 00 0e 00 0e 00 0e 00 0e 38 0e 70 0e e0 0f c0     .........8.p....
     9ea:	0e e0 0e 70 0e 38 1e 38 00 00 00 00 00 00 00 00     ...p.8.8........
     9fa:	0f c0 01 c0 01 c0 01 c0 01 c0 01 c0 01 c0 01 c0     ................
     a0a:	01 c0 01 c0 01 c0 0f f8 00 00 00 00 00 00 00 00     ................
	...
     a22:	1f f8 1c 9c 1c 9c 1c 9c 1c 9c 1c 9c 1c 9c 1c 9c     ................
	...
     a42:	1f e0 1c 70 1c 70 1c 70 1c 70 1c 70 1c 70 1c 70     ...p.p.p.p.p.p.p
	...
     a62:	0f e0 1c 70 1c 70 1c 70 1c 70 1c 70 1c 70 0f e0     ...p.p.p.p.p.p..
	...
     a82:	1b f0 0e 38 0e 38 0e 38 0e 38 0e 38 0f f0 0e 00     ...8.8.8.8.8....
     a92:	0e 00 1f 00 00 00 00 00 00 00 00 00 00 00 00 00     ................
     aa2:	1f b0 38 e0 38 e0 38 e0 38 e0 38 e0 1f e0 00 e0     ..8.8.8.8.8.....
     ab2:	00 e0 01 f0 00 00 00 00 00 00 00 00 00 00 00 00     ................
     ac2:	1e f0 0f f8 0f 38 0e 00 0e 00 0e 00 0e 00 1f 00     .....8..........
	...
     ae2:	0f e0 1c 30 1c 30 0f 80 03 e0 18 70 18 70 0f e0     ...0.0.....p.p..
	...
     afa:	00 00 01 00 03 00 07 00 1f f0 07 00 07 00 07 00     ................
     b0a:	07 00 07 70 07 70 03 e0 00 00 00 00 00 00 00 00     ...p.p..........
	...
     b22:	1c 70 1c 70 1c 70 1c 70 1c 70 1c 70 1c 70 0f d8     .p.p.p.p.p.p.p..
	...
     b42:	1c 70 1c 70 1c 70 1c 70 1c 70 0e e0 07 c0 03 80     .p.p.p.p.p......
	...
     b62:	1c 1c 1c 1c 1c 1c 1c 9c 1c 9c 0f f8 07 70 07 70     .............p.p
	...
     b82:	1c e0 1c e0 0f c0 07 80 07 80 0f c0 1c e0 1c e0     ................
	...
     ba2:	0e 38 0e 38 0e 38 0e 38 0e 38 07 f0 03 e0 00 e0     .8.8.8.8.8......
     bb2:	01 c0 1f 80 00 00 00 00 00 00 00 00 00 00 00 00     ................
     bc2:	1f e0 18 e0 11 c0 03 80 07 00 0e 20 1c 60 1f e0     ........... .`..
	...
     bda:	01 f8 03 80 03 80 03 80 07 00 1c 00 1c 00 07 00     ................
     bea:	03 80 03 80 03 80 01 f8 00 00 00 00 00 00 01 c0     ................
     bfa:	01 c0 01 c0 01 c0 01 c0 01 c0 01 c0 01 c0 01 c0     ................
     c0a:	01 c0 01 c0 01 c0 01 c0 01 c0 00 00 00 00 00 00     ................
     c1a:	1f 80 01 c0 01 c0 01 c0 00 e0 00 38 00 38 00 e0     ...........8.8..
     c2a:	01 c0 01 c0 01 c0 1f 80 00 00 00 00 00 00 00 00     ................
     c3a:	1f 1c 3b 9c 39 dc 38 f8 00 00 00 00 00 00 00 00     ..;.9.8.........
	...

00000c56 <__ctors_start>:
     c56:	0a 09       	sbc	r16, r10

00000c58 <__ctors_end>:
     c58:	11 24       	eor	r1, r1
     c5a:	1f be       	out	0x3f, r1	; 63
     c5c:	cf e5       	ldi	r28, 0x5F	; 95
     c5e:	d4 e0       	ldi	r29, 0x04	; 4
     c60:	de bf       	out	0x3e, r29	; 62
     c62:	cd bf       	out	0x3d, r28	; 61

00000c64 <__do_copy_data>:
     c64:	10 e0       	ldi	r17, 0x00	; 0
     c66:	a0 e6       	ldi	r26, 0x60	; 96
     c68:	b0 e0       	ldi	r27, 0x00	; 0
     c6a:	ea e2       	ldi	r30, 0x2A	; 42
     c6c:	f5 e2       	ldi	r31, 0x25	; 37
     c6e:	02 c0       	rjmp	.+4      	; 0xc74 <__do_copy_data+0x10>
     c70:	05 90       	lpm	r0, Z+
     c72:	0d 92       	st	X+, r0
     c74:	a0 37       	cpi	r26, 0x70	; 112
     c76:	b1 07       	cpc	r27, r17
     c78:	d9 f7       	brne	.-10     	; 0xc70 <__do_copy_data+0xc>

00000c7a <__do_clear_bss>:
     c7a:	22 e0       	ldi	r18, 0x02	; 2
     c7c:	a0 e7       	ldi	r26, 0x70	; 112
     c7e:	b0 e0       	ldi	r27, 0x00	; 0
     c80:	01 c0       	rjmp	.+2      	; 0xc84 <.do_clear_bss_start>

00000c82 <.do_clear_bss_loop>:
     c82:	1d 92       	st	X+, r1

00000c84 <.do_clear_bss_start>:
     c84:	a5 31       	cpi	r26, 0x15	; 21
     c86:	b2 07       	cpc	r27, r18
     c88:	e1 f7       	brne	.-8      	; 0xc82 <.do_clear_bss_loop>

00000c8a <__do_global_ctors>:
     c8a:	16 e0       	ldi	r17, 0x06	; 6
     c8c:	cc e2       	ldi	r28, 0x2C	; 44
     c8e:	d6 e0       	ldi	r29, 0x06	; 6
     c90:	04 c0       	rjmp	.+8      	; 0xc9a <__do_global_ctors+0x10>
     c92:	21 97       	sbiw	r28, 0x01	; 1
     c94:	fe 01       	movw	r30, r28
     c96:	0e 94 03 12 	call	0x2406	; 0x2406 <__tablejump2__>
     c9a:	cb 32       	cpi	r28, 0x2B	; 43
     c9c:	d1 07       	cpc	r29, r17
     c9e:	c9 f7       	brne	.-14     	; 0xc92 <__do_global_ctors+0x8>
     ca0:	0e 94 83 07 	call	0xf06	; 0xf06 <main>
     ca4:	0c 94 93 12 	jmp	0x2526	; 0x2526 <_exit>

00000ca8 <__bad_interrupt>:
     ca8:	0c 94 00 00 	jmp	0	; 0x0 <__vectors>

00000cac <fastbitmap_1bit>:
		r20:r21 fg color 
		r18:r19 bg color
	*/

	/* this block sets up the TOGGLE_WR_FAST registers r30:r31 */
	in r26, _SFR_IO_ADDR(WR_PORT)
     cac:	a5 b3       	in	r26, 0x15	; 21
	mov r27, r26
     cae:	ba 2f       	mov	r27, r26
	set
     cb0:	68 94       	set
	bld r26,WR_PIN
     cb2:	a7 f9       	bld	r26, 7
	clt
     cb4:	e8 94       	clt
	bld r27,WR_PIN
     cb6:	b7 f9       	bld	r27, 7
	
	movw r30, r22
     cb8:	fb 01       	movw	r30, r22

00000cba <FB1BIT_LOOP>:

FB1BIT_LOOP:

	LPM r0, Z+
     cba:	05 90       	lpm	r0, Z+

	PLOT_MONO_PIXEL r0,7
     cbc:	07 fa       	bst	r0, 7
     cbe:	1e f4       	brtc	.+6      	; 0xcc6 <FB1BIT_LOOP+0xc>
     cc0:	4b bb       	out	0x1b, r20	; 27
     cc2:	52 bb       	out	0x12, r21	; 18
     cc4:	02 c0       	rjmp	.+4      	; 0xcca <FB1BIT_LOOP+0x10>
     cc6:	2b bb       	out	0x1b, r18	; 27
     cc8:	32 bb       	out	0x12, r19	; 18
     cca:	b5 bb       	out	0x15, r27	; 21
     ccc:	a5 bb       	out	0x15, r26	; 21
	PLOT_MONO_PIXEL r0,6
     cce:	06 fa       	bst	r0, 6
     cd0:	1e f4       	brtc	.+6      	; 0xcd8 <FB1BIT_LOOP+0x1e>
     cd2:	4b bb       	out	0x1b, r20	; 27
     cd4:	52 bb       	out	0x12, r21	; 18
     cd6:	02 c0       	rjmp	.+4      	; 0xcdc <FB1BIT_LOOP+0x22>
     cd8:	2b bb       	out	0x1b, r18	; 27
     cda:	32 bb       	out	0x12, r19	; 18
     cdc:	b5 bb       	out	0x15, r27	; 21
     cde:	a5 bb       	out	0x15, r26	; 21
	PLOT_MONO_PIXEL r0,5
     ce0:	05 fa       	bst	r0, 5
     ce2:	1e f4       	brtc	.+6      	; 0xcea <FB1BIT_LOOP+0x30>
     ce4:	4b bb       	out	0x1b, r20	; 27
     ce6:	52 bb       	out	0x12, r21	; 18
     ce8:	02 c0       	rjmp	.+4      	; 0xcee <FB1BIT_LOOP+0x34>
     cea:	2b bb       	out	0x1b, r18	; 27
     cec:	32 bb       	out	0x12, r19	; 18
     cee:	b5 bb       	out	0x15, r27	; 21
     cf0:	a5 bb       	out	0x15, r26	; 21
	PLOT_MONO_PIXEL r0,4
     cf2:	04 fa       	bst	r0, 4
     cf4:	1e f4       	brtc	.+6      	; 0xcfc <FB1BIT_LOOP+0x42>
     cf6:	4b bb       	out	0x1b, r20	; 27
     cf8:	52 bb       	out	0x12, r21	; 18
     cfa:	02 c0       	rjmp	.+4      	; 0xd00 <FB1BIT_LOOP+0x46>
     cfc:	2b bb       	out	0x1b, r18	; 27
     cfe:	32 bb       	out	0x12, r19	; 18
     d00:	b5 bb       	out	0x15, r27	; 21
     d02:	a5 bb       	out	0x15, r26	; 21
	PLOT_MONO_PIXEL r0,3
     d04:	03 fa       	bst	r0, 3
     d06:	1e f4       	brtc	.+6      	; 0xd0e <FB1BIT_LOOP+0x54>
     d08:	4b bb       	out	0x1b, r20	; 27
     d0a:	52 bb       	out	0x12, r21	; 18
     d0c:	02 c0       	rjmp	.+4      	; 0xd12 <FB1BIT_LOOP+0x58>
     d0e:	2b bb       	out	0x1b, r18	; 27
     d10:	32 bb       	out	0x12, r19	; 18
     d12:	b5 bb       	out	0x15, r27	; 21
     d14:	a5 bb       	out	0x15, r26	; 21
	PLOT_MONO_PIXEL r0,2
     d16:	02 fa       	bst	r0, 2
     d18:	1e f4       	brtc	.+6      	; 0xd20 <FB1BIT_LOOP+0x66>
     d1a:	4b bb       	out	0x1b, r20	; 27
     d1c:	52 bb       	out	0x12, r21	; 18
     d1e:	02 c0       	rjmp	.+4      	; 0xd24 <FB1BIT_LOOP+0x6a>
     d20:	2b bb       	out	0x1b, r18	; 27
     d22:	32 bb       	out	0x12, r19	; 18
     d24:	b5 bb       	out	0x15, r27	; 21
     d26:	a5 bb       	out	0x15, r26	; 21
	PLOT_MONO_PIXEL r0,1
     d28:	01 fa       	bst	r0, 1
     d2a:	1e f4       	brtc	.+6      	; 0xd32 <FB1BIT_LOOP+0x78>
     d2c:	4b bb       	out	0x1b, r20	; 27
     d2e:	52 bb       	out	0x12, r21	; 18
     d30:	02 c0       	rjmp	.+4      	; 0xd36 <FB1BIT_LOOP+0x7c>
     d32:	2b bb       	out	0x1b, r18	; 27
     d34:	32 bb       	out	0x12, r19	; 18
     d36:	b5 bb       	out	0x15, r27	; 21
     d38:	a5 bb       	out	0x15, r26	; 21
	PLOT_MONO_PIXEL r0,0
     d3a:	00 fa       	bst	r0, 0
     d3c:	1e f4       	brtc	.+6      	; 0xd44 <FB1BIT_LOOP+0x8a>
     d3e:	4b bb       	out	0x1b, r20	; 27
     d40:	52 bb       	out	0x12, r21	; 18
     d42:	02 c0       	rjmp	.+4      	; 0xd48 <FB1BIT_LOOP+0x8e>
     d44:	2b bb       	out	0x1b, r18	; 27
     d46:	32 bb       	out	0x12, r19	; 18
     d48:	b5 bb       	out	0x15, r27	; 21
     d4a:	a5 bb       	out	0x15, r26	; 21

	SUB16 r24,r25,1
     d4c:	81 50       	subi	r24, 0x01	; 1
     d4e:	90 40       	sbci	r25, 0x00	; 0

	cpi r24,0
     d50:	80 30       	cpi	r24, 0x00	; 0
	cpc r25,r1
     d52:	91 05       	cpc	r25, r1
	breq FB1BIT_DONE
     d54:	11 f0       	breq	.+4      	; 0xd5a <FB1BIT_DONE>
	jmp FB1BIT_LOOP
     d56:	0c 94 5d 06 	jmp	0xcba	; 0xcba <FB1BIT_LOOP>

00000d5a <FB1BIT_DONE>:


FB1BIT_DONE:

	ret;
     d5a:	08 95       	ret

00000d5c <fastbitmap_16bit>:
		r24:r25 lenght in pixels/words
		r22:r23 pointer to data
	*/

	/* this block sets up the TOGGLE_WR_FAST registers r30:r31 */
	in r26, _SFR_IO_ADDR(WR_PORT)
     d5c:	a5 b3       	in	r26, 0x15	; 21
	mov r27, r26
     d5e:	ba 2f       	mov	r27, r26
	set
     d60:	68 94       	set
	bld r26,WR_PIN
     d62:	a7 f9       	bld	r26, 7
	clt
     d64:	e8 94       	clt
	bld r27,WR_PIN
     d66:	b7 f9       	bld	r27, 7
	
	movw r30, r22
     d68:	fb 01       	movw	r30, r22

00000d6a <FB16BIT_LOOP>:

FB16BIT_LOOP:

	
	LPM r0, Z+	
     d6a:	05 90       	lpm	r0, Z+
	out DPHIO, r0	
     d6c:	02 ba       	out	0x12, r0	; 18
	LPM r0, Z+	
     d6e:	05 90       	lpm	r0, Z+
	out DPLIO, r0
     d70:	0b ba       	out	0x1b, r0	; 27

	TOGGLE_WR_FAST r27,r26	// place a pixel!
     d72:	b5 bb       	out	0x15, r27	; 21
     d74:	a5 bb       	out	0x15, r26	; 21

	SUB16 r24,r25,1
     d76:	81 50       	subi	r24, 0x01	; 1
     d78:	90 40       	sbci	r25, 0x00	; 0

	cpi r24,0
     d7a:	80 30       	cpi	r24, 0x00	; 0
	cpc r25,r1
     d7c:	91 05       	cpc	r25, r1
	breq FB16BIT_DONE
     d7e:	11 f0       	breq	.+4      	; 0xd84 <FB16BIT_DONE>
	jmp FB16BIT_LOOP
     d80:	0c 94 b5 06 	jmp	0xd6a	; 0xd6a <FB16BIT_LOOP>

00000d84 <FB16BIT_DONE>:


FB16BIT_DONE:

	ret;
     d84:	08 95       	ret

00000d86 <fastbitmap_pb565>:
		r24:r25 data
		
	*/

	/* this block sets up the TOGGLE_WR_FAST registers r30:r31 */
	in r26, _SFR_IO_ADDR(WR_PORT)
     d86:	a5 b3       	in	r26, 0x15	; 21
	mov r27, r26
     d88:	ba 2f       	mov	r27, r26
	set
     d8a:	68 94       	set
	bld r26,WR_PIN
     d8c:	a7 f9       	bld	r26, 7
	clt
     d8e:	e8 94       	clt
	bld r27,WR_PIN
     d90:	b7 f9       	bld	r27, 7
	
	movw r30, r24
     d92:	fc 01       	movw	r30, r24

	clr r1
     d94:	11 24       	eor	r1, r1

00000d96 <PB565BIT_LOOP>:

PB565BIT_LOOP:
	
	LPM r18, Z+	
     d96:	25 91       	lpm	r18, Z+
	cpi r18,0
     d98:	20 30       	cpi	r18, 0x00	; 0
	breq PB565BIT_DONE
     d9a:	a9 f0       	breq	.+42     	; 0xdc6 <PB565BIT_DONE>
	
	bst r18,7
     d9c:	27 fb       	bst	r18, 7
	brtc PB565PLAIN
     d9e:	56 f4       	brtc	.+20     	; 0xdb4 <PB565PLAIN>
	
	// compressed loop.
	andi r18,0x7F
     da0:	2f 77       	andi	r18, 0x7F	; 127
	LPM r0, Z+
     da2:	05 90       	lpm	r0, Z+
	out DPHIO, r0
     da4:	02 ba       	out	0x12, r0	; 18
	LPM r0, Z+
     da6:	05 90       	lpm	r0, Z+
	out DPLIO, r0
     da8:	0b ba       	out	0x1b, r0	; 27

00000daa <PB565COMPRESSED>:
	

PB565COMPRESSED:
	TOGGLE_WR_FAST r27,r26
     daa:	b5 bb       	out	0x15, r27	; 21
     dac:	a5 bb       	out	0x15, r26	; 21
	dec r18
     dae:	2a 95       	dec	r18
	brne PB565COMPRESSED
     db0:	e1 f7       	brne	.-8      	; 0xdaa <PB565COMPRESSED>
	rjmp PB565BIT_LOOP
     db2:	f1 cf       	rjmp	.-30     	; 0xd96 <PB565BIT_LOOP>

00000db4 <PB565PLAIN>:


PB565PLAIN:

	LPM r0, Z+
     db4:	05 90       	lpm	r0, Z+
	out DPHIO, r0
     db6:	02 ba       	out	0x12, r0	; 18
	LPM r0, Z+
     db8:	05 90       	lpm	r0, Z+
	out DPLIO, r0
     dba:	0b ba       	out	0x1b, r0	; 27
	TOGGLE_WR_FAST r27,r26
     dbc:	b5 bb       	out	0x15, r27	; 21
     dbe:	a5 bb       	out	0x15, r26	; 21
	dec r18
     dc0:	2a 95       	dec	r18
	brne PB565PLAIN
     dc2:	c1 f7       	brne	.-16     	; 0xdb4 <PB565PLAIN>
	rjmp PB565BIT_LOOP
     dc4:	e8 cf       	rjmp	.-48     	; 0xd96 <PB565BIT_LOOP>

00000dc6 <PB565BIT_DONE>:




PB565BIT_DONE:
	clr r0
     dc6:	00 24       	eor	r0, r0
	ret;
     dc8:	08 95       	ret

00000dca <fastfill>:
// r22-r25 unsigned 32 bit number of pixels to set.
// note that only 17 bits of this are used, so max pixels
// is 131071, which is fine since we only have 320 * 240 pixels or 76800 loops
fastfill:

	clr r18
     dca:	22 27       	eor	r18, r18

	// devide by 2
	// no need for register 25 it has no bits we care about.
	lsr r24
     dcc:	86 95       	lsr	r24
	ror r23
     dce:	77 95       	ror	r23
	ror r22
     dd0:	67 95       	ror	r22
	ror r18 // take carry onto r18 (modulus)
     dd2:	27 95       	ror	r18

	// devide by 4
	// no need for register 24, it had a max of 1 bit we care about.
	lsr r23
     dd4:	76 95       	lsr	r23
	ror r22
     dd6:	67 95       	ror	r22
	ror r18 // take carry onto r18 (modulus)
     dd8:	27 95       	ror	r18

	// devide by 8
	//lsr r24
	lsr r23
     dda:	76 95       	lsr	r23
	ror r22
     ddc:	67 95       	ror	r22
	ror r18 // take carry onto r18 (modulus)
     dde:	27 95       	ror	r18

	// devide by 16		
	// lsr r24
	lsr r23
     de0:	76 95       	lsr	r23
	ror r22
     de2:	67 95       	ror	r22
	ror r18 // take carry onto r18 (modulus)
     de4:	27 95       	ror	r18

	// finish rolling a full 8 bits aka swap nibbles
	swap r18
     de6:	22 95       	swap	r18

	movw r24, r22
     de8:	cb 01       	movw	r24, r22

00000dea <fastfill2>:
// r24 + r25 hold 16 bit unsigned number of 16xloops.
// r18 holds 8 bit unsigned numner of single loops
fastfill2:

	// prepare the out port registers
	in r30, _SFR_IO_ADDR(WR_PORT)
     dea:	e5 b3       	in	r30, 0x15	; 21
	mov r31, r30
     dec:	fe 2f       	mov	r31, r30
	set
     dee:	68 94       	set
	bld r30,WR_PIN
     df0:	e7 f9       	bld	r30, 7
	clt
     df2:	e8 94       	clt
	bld r31,WR_PIN
     df4:	f7 f9       	bld	r31, 7

	sbiw r24,0 // subtract zero and test if zero	
     df6:	00 97       	sbiw	r24, 0x00	; 0
	breq exitloop16
     df8:	11 f1       	breq	.+68     	; 0xe3e <exitloop16>

00000dfa <loop16>:
loop16:
		
	TOGGLE_WR_FAST r31,r30
     dfa:	f5 bb       	out	0x15, r31	; 21
     dfc:	e5 bb       	out	0x15, r30	; 21
	TOGGLE_WR_FAST r31,r30
     dfe:	f5 bb       	out	0x15, r31	; 21
     e00:	e5 bb       	out	0x15, r30	; 21
	TOGGLE_WR_FAST r31,r30
     e02:	f5 bb       	out	0x15, r31	; 21
     e04:	e5 bb       	out	0x15, r30	; 21
	TOGGLE_WR_FAST r31,r30
     e06:	f5 bb       	out	0x15, r31	; 21
     e08:	e5 bb       	out	0x15, r30	; 21
		
	TOGGLE_WR_FAST r31,r30
     e0a:	f5 bb       	out	0x15, r31	; 21
     e0c:	e5 bb       	out	0x15, r30	; 21
	TOGGLE_WR_FAST r31,r30
     e0e:	f5 bb       	out	0x15, r31	; 21
     e10:	e5 bb       	out	0x15, r30	; 21
	TOGGLE_WR_FAST r31,r30
     e12:	f5 bb       	out	0x15, r31	; 21
     e14:	e5 bb       	out	0x15, r30	; 21
	TOGGLE_WR_FAST r31,r30
     e16:	f5 bb       	out	0x15, r31	; 21
     e18:	e5 bb       	out	0x15, r30	; 21
		
	TOGGLE_WR_FAST r31,r30
     e1a:	f5 bb       	out	0x15, r31	; 21
     e1c:	e5 bb       	out	0x15, r30	; 21
	TOGGLE_WR_FAST r31,r30
     e1e:	f5 bb       	out	0x15, r31	; 21
     e20:	e5 bb       	out	0x15, r30	; 21
	TOGGLE_WR_FAST r31,r30
     e22:	f5 bb       	out	0x15, r31	; 21
     e24:	e5 bb       	out	0x15, r30	; 21
	TOGGLE_WR_FAST r31,r30
     e26:	f5 bb       	out	0x15, r31	; 21
     e28:	e5 bb       	out	0x15, r30	; 21
		
	TOGGLE_WR_FAST r31,r30
     e2a:	f5 bb       	out	0x15, r31	; 21
     e2c:	e5 bb       	out	0x15, r30	; 21
	TOGGLE_WR_FAST r31,r30
     e2e:	f5 bb       	out	0x15, r31	; 21
     e30:	e5 bb       	out	0x15, r30	; 21
	TOGGLE_WR_FAST r31,r30
     e32:	f5 bb       	out	0x15, r31	; 21
     e34:	e5 bb       	out	0x15, r30	; 21
	TOGGLE_WR_FAST r31,r30
     e36:	f5 bb       	out	0x15, r31	; 21
     e38:	e5 bb       	out	0x15, r30	; 21

	sbiw r24,1	
     e3a:	01 97       	sbiw	r24, 0x01	; 1
	brne loop16
     e3c:	f1 f6       	brne	.-68     	; 0xdfa <loop16>

00000e3e <exitloop16>:

exitloop16:

	cpi r18,0
     e3e:	20 30       	cpi	r18, 0x00	; 0
	breq exitsingleloop
     e40:	21 f0       	breq	.+8      	; 0xe4a <exitsingleloop>

00000e42 <singleloop>:
singleloop:			
	TOGGLE_WR_FAST r31,r30
     e42:	f5 bb       	out	0x15, r31	; 21
     e44:	e5 bb       	out	0x15, r30	; 21
	dec r18
     e46:	2a 95       	dec	r18
	brne singleloop
     e48:	e1 f7       	brne	.-8      	; 0xe42 <singleloop>

00000e4a <exitsingleloop>:

exitsingleloop:
	ret 
     e4a:	08 95       	ret

00000e4c <fastfill3>:

// r22-r25 unsigned 32 bit number of pixels to set.
// note that only 17 bits of this are used, so max pixels
// is 131071, which is fine since we only have 320 * 240 pixels or 76800 loops
fastfill3:
	TOGGLE_WR
     e4c:	af 98       	cbi	0x15, 7	; 21
     e4e:	af 9a       	sbi	0x15, 7	; 21
	SUB32 r22,r23,r24,r25,1
     e50:	61 50       	subi	r22, 0x01	; 1
     e52:	70 40       	sbci	r23, 0x00	; 0
     e54:	80 40       	sbci	r24, 0x00	; 0
     e56:	90 40       	sbci	r25, 0x00	; 0
	brne fastfill3
     e58:	c9 f7       	brne	.-14     	; 0xe4c <fastfill3>

     e5a:	08 95       	ret

00000e5c <LCD_Write_COM>:
#include "as_macros.h"


.global LCD_Write_COM
LCD_Write_COM:
	BUS_START_REG
     e5c:	ae 98       	cbi	0x15, 6	; 21
	clr r1
     e5e:	11 24       	eor	r1, r1
	out DPLIO, r24
     e60:	8b bb       	out	0x1b, r24	; 27
	out DPHIO, r1
     e62:	12 ba       	out	0x12, r1	; 18
	TOGGLE_WR
     e64:	af 98       	cbi	0x15, 7	; 21
     e66:	af 9a       	sbi	0x15, 7	; 21
	ret
     e68:	08 95       	ret

00000e6a <LCD_Write_DATA>:

.global LCD_Write_DATA
LCD_Write_DATA:
	BUS_START_DATA	
     e6a:	ae 9a       	sbi	0x15, 6	; 21
	out DPLIO, r22
     e6c:	6b bb       	out	0x1b, r22	; 27
	out DPHIO, r24
     e6e:	82 bb       	out	0x12, r24	; 18
	TOGGLE_WR
     e70:	af 98       	cbi	0x15, 7	; 21
     e72:	af 9a       	sbi	0x15, 7	; 21
	ret
     e74:	08 95       	ret

00000e76 <LCD_Write_DATA2>:

.global LCD_Write_DATA2
LCD_Write_DATA2:
	BUS_START_DATA	
     e76:	ae 9a       	sbi	0x15, 6	; 21
	clr r1
     e78:	11 24       	eor	r1, r1
	out DPLIO, r24
     e7a:	8b bb       	out	0x1b, r24	; 27
	out DPHIO, r1
     e7c:	12 ba       	out	0x12, r1	; 18
	TOGGLE_WR
     e7e:	af 98       	cbi	0x15, 7	; 21
     e80:	af 9a       	sbi	0x15, 7	; 21
	ret
     e82:	08 95       	ret

00000e84 <LCD_Write_COM_DATA>:


.global LCD_Write_COM_DATA
LCD_Write_COM_DATA:
	
	BUS_START_REG
     e84:	ae 98       	cbi	0x15, 6	; 21
	clr r1
     e86:	11 24       	eor	r1, r1
	out DPLIO, r24
     e88:	8b bb       	out	0x1b, r24	; 27
	out DPHIO, r1
     e8a:	12 ba       	out	0x12, r1	; 18
	TOGGLE_WR
     e8c:	af 98       	cbi	0x15, 7	; 21
     e8e:	af 9a       	sbi	0x15, 7	; 21

	BUS_START_DATA	
     e90:	ae 9a       	sbi	0x15, 6	; 21
	out DPLIO, r22
     e92:	6b bb       	out	0x1b, r22	; 27
	out DPHIO, r23
     e94:	72 bb       	out	0x12, r23	; 18
	TOGGLE_WR
     e96:	af 98       	cbi	0x15, 7	; 21
     e98:	af 9a       	sbi	0x15, 7	; 21

	ret
     e9a:	08 95       	ret

00000e9c <LCD_Writ_Bus>:


.global LCD_Writ_Bus
	LCD_Writ_Bus:

	out DPHIO, r24
     e9c:	82 bb       	out	0x12, r24	; 18
	out DPLIO, r22
     e9e:	6b bb       	out	0x1b, r22	; 27
	TOGGLE_WR
     ea0:	af 98       	cbi	0x15, 7	; 21
     ea2:	af 9a       	sbi	0x15, 7	; 21

     ea4:	08 95       	ret

00000ea6 <_Z41__static_initialization_and_destruction_0ii>:
		bird.drawBird();
		bird.updateBird();
		_delay_ms(5);
		display.clrScr();
	}
     ea6:	0f 93       	push	r16
     ea8:	1f 93       	push	r17
     eaa:	cf 93       	push	r28
     eac:	df 93       	push	r29
     eae:	01 97       	sbiw	r24, 0x01	; 1
     eb0:	29 f5       	brne	.+74     	; 0xefc <_Z41__static_initialization_and_destruction_0ii+0x56>
     eb2:	6f 3f       	cpi	r22, 0xFF	; 255
     eb4:	7f 4f       	sbci	r23, 0xFF	; 255
     eb6:	11 f5       	brne	.+68     	; 0xefc <_Z41__static_initialization_and_destruction_0ii+0x56>


/*
* Global variables
*/
UTFT display; //Display class
     eb8:	82 e0       	ldi	r24, 0x02	; 2
     eba:	92 e0       	ldi	r25, 0x02	; 2
     ebc:	0e 94 1e 0a 	call	0x143c	; 0x143c <_ZN4UTFTC1Ev>
		if(this->y < 0) this->dontUse = 1;

	}
};

Pipe pipes[50];
     ec0:	01 e3       	ldi	r16, 0x31	; 49
     ec2:	10 e0       	ldi	r17, 0x00	; 0
     ec4:	c2 e7       	ldi	r28, 0x72	; 114
     ec6:	d0 e0       	ldi	r29, 0x00	; 0
     ec8:	0f 3f       	cpi	r16, 0xFF	; 255
     eca:	8f ef       	ldi	r24, 0xFF	; 255
     ecc:	18 07       	cpc	r17, r24
     ece:	b1 f0       	breq	.+44     	; 0xefc <_Z41__static_initialization_and_destruction_0ii+0x56>
	int dontUse;
	
	Pipe()
	{
		
		y = 220;
     ed0:	8c ed       	ldi	r24, 0xDC	; 220
     ed2:	90 e0       	ldi	r25, 0x00	; 0
     ed4:	99 83       	std	Y+1, r25	; 0x01
     ed6:	88 83       	st	Y, r24
		speed = 1;
     ed8:	81 e0       	ldi	r24, 0x01	; 1
     eda:	90 e0       	ldi	r25, 0x00	; 0
     edc:	9b 83       	std	Y+3, r25	; 0x03
     ede:	8a 83       	std	Y+2, r24	; 0x02
		upperHeight = rand() % 300;
     ee0:	0e 94 64 12 	call	0x24c8	; 0x24c8 <rand>
     ee4:	6c e2       	ldi	r22, 0x2C	; 44
     ee6:	71 e0       	ldi	r23, 0x01	; 1
     ee8:	0e 94 a6 11 	call	0x234c	; 0x234c <__divmodhi4>
     eec:	9d 83       	std	Y+5, r25	; 0x05
     eee:	8c 83       	std	Y+4, r24	; 0x04
		
		dontUse = 0;
     ef0:	1f 82       	std	Y+7, r1	; 0x07
     ef2:	1e 82       	std	Y+6, r1	; 0x06
		if(this->y < 0) this->dontUse = 1;

	}
};

Pipe pipes[50];
     ef4:	28 96       	adiw	r28, 0x08	; 8
     ef6:	01 50       	subi	r16, 0x01	; 1
     ef8:	11 09       	sbc	r17, r1
     efa:	e6 cf       	rjmp	.-52     	; 0xec8 <_Z41__static_initialization_and_destruction_0ii+0x22>
		bird.drawBird();
		bird.updateBird();
		_delay_ms(5);
		display.clrScr();
	}
     efc:	df 91       	pop	r29
     efe:	cf 91       	pop	r28
     f00:	1f 91       	pop	r17
     f02:	0f 91       	pop	r16
     f04:	08 95       	ret

00000f06 <main>:
	}
	
};

int main(void)
{
     f06:	cf 93       	push	r28
     f08:	df 93       	push	r29
     f0a:	cd b7       	in	r28, 0x3d	; 61
     f0c:	de b7       	in	r29, 0x3e	; 62
     f0e:	28 97       	sbiw	r28, 0x08	; 8
     f10:	0f b6       	in	r0, 0x3f	; 63
     f12:	f8 94       	cli
     f14:	de bf       	out	0x3e, r29	; 62
     f16:	0f be       	out	0x3f, r0	; 63
     f18:	cd bf       	out	0x3d, r28	; 61
	
	//SET PORTS
	PORTB = 0xff;
     f1a:	8f ef       	ldi	r24, 0xFF	; 255
     f1c:	88 bb       	out	0x18, r24	; 24
	DDRB = 0x00;
     f1e:	17 ba       	out	0x17, r1	; 23
	
	//LCD INIT
	display.clrScr();
     f20:	82 e0       	ldi	r24, 0x02	; 2
     f22:	92 e0       	ldi	r25, 0x02	; 2
     f24:	0e 94 d8 0a 	call	0x15b0	; 0x15b0 <_ZN4UTFT6clrScrEv>
	display.InitLCD(LANDSCAPE);
     f28:	61 e0       	ldi	r22, 0x01	; 1
     f2a:	82 e0       	ldi	r24, 0x02	; 2
     f2c:	92 e0       	ldi	r25, 0x02	; 2
     f2e:	0e 94 56 0b 	call	0x16ac	; 0x16ac <_ZN4UTFT7InitLCDEh>
	int x;
	int y;
	Bird()
	{
		x = 150;
		y = 60;
     f32:	0f 2e       	mov	r0, r31
     f34:	f6 e9       	ldi	r31, 0x96	; 150
     f36:	8f 2e       	mov	r8, r31
     f38:	91 2c       	mov	r9, r1
     f3a:	fc e3       	ldi	r31, 0x3C	; 60
     f3c:	af 2e       	mov	r10, r31
     f3e:	b1 2c       	mov	r11, r1
     f40:	f0 2d       	mov	r31, r0
	display.clrScr();
	display.InitLCD(LANDSCAPE);

	//GUI INIT
	Bird bird;
	for(int i = 0; i < 50; i++) {
     f42:	e1 2c       	mov	r14, r1
     f44:	f1 2c       	mov	r15, r1
     f46:	22 e3       	ldi	r18, 0x32	; 50
     f48:	e2 16       	cp	r14, r18
     f4a:	f1 04       	cpc	r15, r1
     f4c:	34 f5       	brge	.+76     	; 0xf9a <main+0x94>
	int dontUse;
	
	Pipe()
	{
		
		y = 220;
     f4e:	8c ed       	ldi	r24, 0xDC	; 220
     f50:	90 e0       	ldi	r25, 0x00	; 0
     f52:	9a 83       	std	Y+2, r25	; 0x02
     f54:	89 83       	std	Y+1, r24	; 0x01
		speed = 1;
     f56:	81 e0       	ldi	r24, 0x01	; 1
     f58:	90 e0       	ldi	r25, 0x00	; 0
     f5a:	9c 83       	std	Y+4, r25	; 0x04
     f5c:	8b 83       	std	Y+3, r24	; 0x03
		upperHeight = rand() % 300;
     f5e:	0e 94 64 12 	call	0x24c8	; 0x24c8 <rand>
     f62:	6c e2       	ldi	r22, 0x2C	; 44
     f64:	71 e0       	ldi	r23, 0x01	; 1
     f66:	0e 94 a6 11 	call	0x234c	; 0x234c <__divmodhi4>
     f6a:	9e 83       	std	Y+6, r25	; 0x06
     f6c:	8d 83       	std	Y+5, r24	; 0x05
		
		dontUse = 0;
     f6e:	18 86       	std	Y+8, r1	; 0x08
     f70:	1f 82       	std	Y+7, r1	; 0x07
	display.InitLCD(LANDSCAPE);

	//GUI INIT
	Bird bird;
	for(int i = 0; i < 50; i++) {
		pipes[i] = Pipe();
     f72:	d7 01       	movw	r26, r14
     f74:	aa 0f       	add	r26, r26
     f76:	bb 1f       	adc	r27, r27
     f78:	aa 0f       	add	r26, r26
     f7a:	bb 1f       	adc	r27, r27
     f7c:	aa 0f       	add	r26, r26
     f7e:	bb 1f       	adc	r27, r27
     f80:	ae 58       	subi	r26, 0x8E	; 142
     f82:	bf 4f       	sbci	r27, 0xFF	; 255
     f84:	88 e0       	ldi	r24, 0x08	; 8
     f86:	fe 01       	movw	r30, r28
     f88:	31 96       	adiw	r30, 0x01	; 1
     f8a:	01 90       	ld	r0, Z+
     f8c:	0d 92       	st	X+, r0
     f8e:	8a 95       	dec	r24
     f90:	e1 f7       	brne	.-8      	; 0xf8a <main+0x84>
	display.clrScr();
	display.InitLCD(LANDSCAPE);

	//GUI INIT
	Bird bird;
	for(int i = 0; i < 50; i++) {
     f92:	3f ef       	ldi	r19, 0xFF	; 255
     f94:	e3 1a       	sub	r14, r19
     f96:	f3 0a       	sbc	r15, r19
     f98:	d6 cf       	rjmp	.-84     	; 0xf46 <main+0x40>

	
	while (1)
	{
		//if((PINB & (1 << PB0)) == 0)
		for (int i = 0; i < pipeCount; i++){
     f9a:	e1 2c       	mov	r14, r1
     f9c:	f1 2c       	mov	r15, r1
     f9e:	80 91 64 00 	lds	r24, 0x0064	; 0x800064 <pipeCount>
     fa2:	90 91 65 00 	lds	r25, 0x0065	; 0x800065 <pipeCount+0x1>
     fa6:	e8 16       	cp	r14, r24
     fa8:	f9 06       	cpc	r15, r25
     faa:	0c f0       	brlt	.+2      	; 0xfae <main+0xa8>
     fac:	58 c0       	rjmp	.+176    	; 0x105e <main+0x158>
			if(pipes[i].dontUse == 0){
     fae:	f7 01       	movw	r30, r14
     fb0:	ee 0f       	add	r30, r30
     fb2:	ff 1f       	adc	r31, r31
     fb4:	ee 0f       	add	r30, r30
     fb6:	ff 1f       	adc	r31, r31
     fb8:	ee 0f       	add	r30, r30
     fba:	ff 1f       	adc	r31, r31
     fbc:	ee 58       	subi	r30, 0x8E	; 142
     fbe:	ff 4f       	sbci	r31, 0xFF	; 255
     fc0:	86 81       	ldd	r24, Z+6	; 0x06
     fc2:	97 81       	ldd	r25, Z+7	; 0x07
     fc4:	89 2b       	or	r24, r25
     fc6:	09 f0       	breq	.+2      	; 0xfca <main+0xc4>
     fc8:	46 c0       	rjmp	.+140    	; 0x1056 <main+0x150>
				pipes[i].drawPipe();
     fca:	c7 01       	movw	r24, r14
     fcc:	88 0f       	add	r24, r24
     fce:	99 1f       	adc	r25, r25
     fd0:	88 0f       	add	r24, r24
     fd2:	99 1f       	adc	r25, r25
     fd4:	88 0f       	add	r24, r24
     fd6:	99 1f       	adc	r25, r25
     fd8:	fc 01       	movw	r30, r24
     fda:	ee 58       	subi	r30, 0x8E	; 142
     fdc:	ff 4f       	sbci	r31, 0xFF	; 255
     fde:	6f 01       	movw	r12, r30
	}

	//create drawPipe function that will draw the pipe with pipes current x and y coordinates
	void drawPipe()
	{
		display.setColor(GREEN);
     fe0:	20 e0       	ldi	r18, 0x00	; 0
     fe2:	4f ef       	ldi	r20, 0xFF	; 255
     fe4:	60 e0       	ldi	r22, 0x00	; 0
     fe6:	82 e0       	ldi	r24, 0x02	; 2
     fe8:	92 e0       	ldi	r25, 0x02	; 2
     fea:	0e 94 0e 0b 	call	0x161c	; 0x161c <_ZN4UTFT8setColorEhhh>
		//display.fillRect(200, 150, 0, 60); //prve dve koordinate za top left tocku
		// druge dvije za bottom right tocku
		//display.fillRect(200,150,0, 210);
		display.fillRect(319, this->y, 320 - this->upperHeight, this->y + 10);
     fee:	f6 01       	movw	r30, r12
     ff0:	40 81       	ld	r20, Z
     ff2:	51 81       	ldd	r21, Z+1	; 0x01
     ff4:	8a 01       	movw	r16, r20
     ff6:	06 5f       	subi	r16, 0xF6	; 246
     ff8:	1f 4f       	sbci	r17, 0xFF	; 255
     ffa:	84 81       	ldd	r24, Z+4	; 0x04
     ffc:	95 81       	ldd	r25, Z+5	; 0x05
     ffe:	20 e4       	ldi	r18, 0x40	; 64
    1000:	31 e0       	ldi	r19, 0x01	; 1
    1002:	28 1b       	sub	r18, r24
    1004:	39 0b       	sbc	r19, r25
    1006:	6f e3       	ldi	r22, 0x3F	; 63
    1008:	71 e0       	ldi	r23, 0x01	; 1
    100a:	82 e0       	ldi	r24, 0x02	; 2
    100c:	92 e0       	ldi	r25, 0x02	; 2
    100e:	0e 94 78 0a 	call	0x14f0	; 0x14f0 <_ZN4UTFT8fillRectEiiii>
		display.fillRect(320 - this->upperHeight - 80, this->y, 0, this->y + 10);
    1012:	f6 01       	movw	r30, r12
    1014:	40 81       	ld	r20, Z
    1016:	51 81       	ldd	r21, Z+1	; 0x01
    1018:	8a 01       	movw	r16, r20
    101a:	06 5f       	subi	r16, 0xF6	; 246
    101c:	1f 4f       	sbci	r17, 0xFF	; 255
    101e:	84 81       	ldd	r24, Z+4	; 0x04
    1020:	95 81       	ldd	r25, Z+5	; 0x05
    1022:	60 ef       	ldi	r22, 0xF0	; 240
    1024:	70 e0       	ldi	r23, 0x00	; 0
    1026:	68 1b       	sub	r22, r24
    1028:	79 0b       	sbc	r23, r25
    102a:	20 e0       	ldi	r18, 0x00	; 0
    102c:	30 e0       	ldi	r19, 0x00	; 0
    102e:	82 e0       	ldi	r24, 0x02	; 2
    1030:	92 e0       	ldi	r25, 0x02	; 2
    1032:	0e 94 78 0a 	call	0x14f0	; 0x14f0 <_ZN4UTFT8fillRectEiiii>
		//draw second pipe
		//display.fillRect(x, height + 100, width, 240 - height);
	}
	void update(){
		this->y = this->y - this->speed;
    1036:	f6 01       	movw	r30, r12
    1038:	80 81       	ld	r24, Z
    103a:	91 81       	ldd	r25, Z+1	; 0x01
    103c:	22 81       	ldd	r18, Z+2	; 0x02
    103e:	33 81       	ldd	r19, Z+3	; 0x03
    1040:	82 1b       	sub	r24, r18
    1042:	93 0b       	sbc	r25, r19
    1044:	91 83       	std	Z+1, r25	; 0x01
    1046:	80 83       	st	Z, r24
		if(this->y < 0) this->dontUse = 1;
    1048:	99 23       	and	r25, r25
    104a:	2c f4       	brge	.+10     	; 0x1056 <main+0x150>
    104c:	f6 01       	movw	r30, r12
    104e:	81 e0       	ldi	r24, 0x01	; 1
    1050:	90 e0       	ldi	r25, 0x00	; 0
    1052:	97 83       	std	Z+7, r25	; 0x07
    1054:	86 83       	std	Z+6, r24	; 0x06

	
	while (1)
	{
		//if((PINB & (1 << PB0)) == 0)
		for (int i = 0; i < pipeCount; i++){
    1056:	ff ef       	ldi	r31, 0xFF	; 255
    1058:	ef 1a       	sub	r14, r31
    105a:	ff 0a       	sbc	r15, r31
    105c:	a0 cf       	rjmp	.-192    	; 0xf9e <main+0x98>
			if(pipes[i].dontUse == 0){
				pipes[i].drawPipe();
				pipes[i].update();
			}
		}
		pixelCounter++;
    105e:	20 91 70 00 	lds	r18, 0x0070	; 0x800070 <__data_end>
    1062:	30 91 71 00 	lds	r19, 0x0071	; 0x800071 <__data_end+0x1>
    1066:	2f 5f       	subi	r18, 0xFF	; 255
    1068:	3f 4f       	sbci	r19, 0xFF	; 255
    106a:	30 93 71 00 	sts	0x0071, r19	; 0x800071 <__data_end+0x1>
    106e:	20 93 70 00 	sts	0x0070, r18	; 0x800070 <__data_end>
		if(pixelCounter == 80){
    1072:	20 35       	cpi	r18, 0x50	; 80
    1074:	31 05       	cpc	r19, r1
    1076:	89 f4       	brne	.+34     	; 0x109a <main+0x194>
			pipeCount++;
    1078:	01 96       	adiw	r24, 0x01	; 1
    107a:	90 93 65 00 	sts	0x0065, r25	; 0x800065 <pipeCount+0x1>
    107e:	80 93 64 00 	sts	0x0064, r24	; 0x800064 <pipeCount>
			if(pipeCount > 50) pipeCount = 50;
    1082:	c3 97       	sbiw	r24, 0x33	; 51
    1084:	34 f0       	brlt	.+12     	; 0x1092 <main+0x18c>
    1086:	82 e3       	ldi	r24, 0x32	; 50
    1088:	90 e0       	ldi	r25, 0x00	; 0
    108a:	90 93 65 00 	sts	0x0065, r25	; 0x800065 <pipeCount+0x1>
    108e:	80 93 64 00 	sts	0x0064, r24	; 0x800064 <pipeCount>
			pixelCounter = 0;
    1092:	10 92 71 00 	sts	0x0071, r1	; 0x800071 <__data_end+0x1>
    1096:	10 92 70 00 	sts	0x0070, r1	; 0x800070 <__data_end>
		y = 60;
	}
	//create drawBird function that will draw the bird with birds current x and y coordinates
	void drawBird()
	{
		display.setColor(WHITE);
    109a:	2f ef       	ldi	r18, 0xFF	; 255
    109c:	4f ef       	ldi	r20, 0xFF	; 255
    109e:	6f ef       	ldi	r22, 0xFF	; 255
    10a0:	82 e0       	ldi	r24, 0x02	; 2
    10a2:	92 e0       	ldi	r25, 0x02	; 2
    10a4:	0e 94 0e 0b 	call	0x161c	; 0x161c <_ZN4UTFT8setColorEhhh>
		display.fillCircle(x, y, 10);
    10a8:	2a e0       	ldi	r18, 0x0A	; 10
    10aa:	30 e0       	ldi	r19, 0x00	; 0
    10ac:	a5 01       	movw	r20, r10
    10ae:	b4 01       	movw	r22, r8
    10b0:	82 e0       	ldi	r24, 0x02	; 2
    10b2:	92 e0       	ldi	r25, 0x02	; 2
    10b4:	0e 94 9f 0b 	call	0x173e	; 0x173e <_ZN4UTFT10fillCircleEiii>
	}
	//create updateBird function that will update the x coordinate of the bird when button is pressed else the bird will fall at a constant rate determined by gravity
	void updateBird()
	{
		if((PINB & (1 << PB0)) == 0)
    10b8:	b0 99       	sbic	0x16, 0	; 22
    10ba:	16 c0       	rjmp	.+44     	; 0x10e8 <main+0x1e2>
		{
			x += 10;
    10bc:	c4 01       	movw	r24, r8
    10be:	0a 96       	adiw	r24, 0x0a	; 10
    10c0:	4c 01       	movw	r8, r24
	#else
		//round up by default
		__ticks_dc = (uint32_t)(ceil(fabs(__tmp)));
	#endif

	__builtin_avr_delay_cycles(__ticks_dc);
    10c2:	ef ef       	ldi	r30, 0xFF	; 255
    10c4:	f3 e2       	ldi	r31, 0x23	; 35
    10c6:	31 97       	sbiw	r30, 0x01	; 1
    10c8:	f1 f7       	brne	.-4      	; 0x10c6 <main+0x1c0>
    10ca:	00 c0       	rjmp	.+0      	; 0x10cc <main+0x1c6>
    10cc:	00 00       	nop
			_delay_ms(5);
			if(x + 10 > 315){
    10ce:	0a 96       	adiw	r24, 0x0a	; 10
    10d0:	8c 33       	cpi	r24, 0x3C	; 60
    10d2:	91 40       	sbci	r25, 0x01	; 1
    10d4:	ec f0       	brlt	.+58     	; 0x1110 <main+0x20a>
				x=310;
    10d6:	0f 2e       	mov	r0, r31
    10d8:	f6 e3       	ldi	r31, 0x36	; 54
    10da:	8f 2e       	mov	r8, r31
    10dc:	99 24       	eor	r9, r9
    10de:	93 94       	inc	r9
    10e0:	f0 2d       	mov	r31, r0
			
			
		}

		//add collision detection
		for (int i = 0; i < pipeCount; i++){
    10e2:	80 e0       	ldi	r24, 0x00	; 0
    10e4:	90 e0       	ldi	r25, 0x00	; 0
    10e6:	19 c0       	rjmp	.+50     	; 0x111a <main+0x214>
				x=310;
			}
		}
		else
		{
			x -= 4;
    10e8:	c4 01       	movw	r24, r8
    10ea:	04 97       	sbiw	r24, 0x04	; 4
    10ec:	4c 01       	movw	r8, r24
    10ee:	ef ef       	ldi	r30, 0xFF	; 255
    10f0:	f3 e2       	ldi	r31, 0x23	; 35
    10f2:	31 97       	sbiw	r30, 0x01	; 1
    10f4:	f1 f7       	brne	.-4      	; 0x10f2 <main+0x1ec>
    10f6:	00 c0       	rjmp	.+0      	; 0x10f8 <main+0x1f2>
    10f8:	00 00       	nop
			_delay_ms(5);
			if(x - 10 < 5){
    10fa:	0a 97       	sbiw	r24, 0x0a	; 10
    10fc:	05 97       	sbiw	r24, 0x05	; 5
    10fe:	5c f4       	brge	.+22     	; 0x1116 <main+0x210>
				x=5;
    1100:	0f 2e       	mov	r0, r31
    1102:	f5 e0       	ldi	r31, 0x05	; 5
    1104:	8f 2e       	mov	r8, r31
    1106:	91 2c       	mov	r9, r1
    1108:	f0 2d       	mov	r31, r0
			
			
		}

		//add collision detection
		for (int i = 0; i < pipeCount; i++){
    110a:	80 e0       	ldi	r24, 0x00	; 0
    110c:	90 e0       	ldi	r25, 0x00	; 0
    110e:	05 c0       	rjmp	.+10     	; 0x111a <main+0x214>
    1110:	80 e0       	ldi	r24, 0x00	; 0
    1112:	90 e0       	ldi	r25, 0x00	; 0
    1114:	02 c0       	rjmp	.+4      	; 0x111a <main+0x214>
    1116:	80 e0       	ldi	r24, 0x00	; 0
    1118:	90 e0       	ldi	r25, 0x00	; 0
    111a:	20 91 64 00 	lds	r18, 0x0064	; 0x800064 <pipeCount>
    111e:	30 91 65 00 	lds	r19, 0x0065	; 0x800065 <pipeCount+0x1>
    1122:	82 17       	cp	r24, r18
    1124:	93 07       	cpc	r25, r19
    1126:	0c f0       	brlt	.+2      	; 0x112a <main+0x224>
    1128:	6a c0       	rjmp	.+212    	; 0x11fe <main+0x2f8>
			if(pipes[i].dontUse == 0){
    112a:	fc 01       	movw	r30, r24
    112c:	ee 0f       	add	r30, r30
    112e:	ff 1f       	adc	r31, r31
    1130:	ee 0f       	add	r30, r30
    1132:	ff 1f       	adc	r31, r31
    1134:	ee 0f       	add	r30, r30
    1136:	ff 1f       	adc	r31, r31
    1138:	ee 58       	subi	r30, 0x8E	; 142
    113a:	ff 4f       	sbci	r31, 0xFF	; 255
    113c:	26 81       	ldd	r18, Z+6	; 0x06
    113e:	37 81       	ldd	r19, Z+7	; 0x07
    1140:	23 2b       	or	r18, r19
    1142:	09 f0       	breq	.+2      	; 0x1146 <main+0x240>
    1144:	5a c0       	rjmp	.+180    	; 0x11fa <main+0x2f4>
				if((320 - pipes[i].upperHeight < x + 10 || 320 - pipes[i].upperHeight - 80 > x - 10) && pipes[i].y < y + 10 && pipes[i].y + 10 > y - 10){
    1146:	fc 01       	movw	r30, r24
    1148:	ee 0f       	add	r30, r30
    114a:	ff 1f       	adc	r31, r31
    114c:	ee 0f       	add	r30, r30
    114e:	ff 1f       	adc	r31, r31
    1150:	ee 0f       	add	r30, r30
    1152:	ff 1f       	adc	r31, r31
    1154:	ee 58       	subi	r30, 0x8E	; 142
    1156:	ff 4f       	sbci	r31, 0xFF	; 255
    1158:	44 81       	ldd	r20, Z+4	; 0x04
    115a:	55 81       	ldd	r21, Z+5	; 0x05
    115c:	20 e4       	ldi	r18, 0x40	; 64
    115e:	31 e0       	ldi	r19, 0x01	; 1
    1160:	24 1b       	sub	r18, r20
    1162:	35 0b       	sbc	r19, r21
    1164:	b4 01       	movw	r22, r8
    1166:	66 5f       	subi	r22, 0xF6	; 246
    1168:	7f 4f       	sbci	r23, 0xFF	; 255
    116a:	26 17       	cp	r18, r22
    116c:	37 07       	cpc	r19, r23
    116e:	54 f0       	brlt	.+20     	; 0x1184 <main+0x27e>
    1170:	20 ef       	ldi	r18, 0xF0	; 240
    1172:	30 e0       	ldi	r19, 0x00	; 0
    1174:	24 1b       	sub	r18, r20
    1176:	35 0b       	sbc	r19, r21
    1178:	a4 01       	movw	r20, r8
    117a:	4a 50       	subi	r20, 0x0A	; 10
    117c:	51 09       	sbc	r21, r1
    117e:	42 17       	cp	r20, r18
    1180:	53 07       	cpc	r21, r19
    1182:	dc f5       	brge	.+118    	; 0x11fa <main+0x2f4>
    1184:	fc 01       	movw	r30, r24
    1186:	ee 0f       	add	r30, r30
    1188:	ff 1f       	adc	r31, r31
    118a:	ee 0f       	add	r30, r30
    118c:	ff 1f       	adc	r31, r31
    118e:	ee 0f       	add	r30, r30
    1190:	ff 1f       	adc	r31, r31
    1192:	ee 58       	subi	r30, 0x8E	; 142
    1194:	ff 4f       	sbci	r31, 0xFF	; 255
    1196:	20 81       	ld	r18, Z
    1198:	31 81       	ldd	r19, Z+1	; 0x01
    119a:	a5 01       	movw	r20, r10
    119c:	46 5f       	subi	r20, 0xF6	; 246
    119e:	5f 4f       	sbci	r21, 0xFF	; 255
    11a0:	24 17       	cp	r18, r20
    11a2:	35 07       	cpc	r19, r21
    11a4:	54 f5       	brge	.+84     	; 0x11fa <main+0x2f4>
    11a6:	26 5f       	subi	r18, 0xF6	; 246
    11a8:	3f 4f       	sbci	r19, 0xFF	; 255
    11aa:	44 51       	subi	r20, 0x14	; 20
    11ac:	51 09       	sbc	r21, r1
    11ae:	42 17       	cp	r20, r18
    11b0:	53 07       	cpc	r21, r19
    11b2:	1c f5       	brge	.+70     	; 0x11fa <main+0x2f4>
					display.clrScr();
    11b4:	82 e0       	ldi	r24, 0x02	; 2
    11b6:	92 e0       	ldi	r25, 0x02	; 2
    11b8:	0e 94 d8 0a 	call	0x15b0	; 0x15b0 <_ZN4UTFT6clrScrEv>
					display.InitLCD(PORTRAIT);
    11bc:	60 e0       	ldi	r22, 0x00	; 0
    11be:	82 e0       	ldi	r24, 0x02	; 2
    11c0:	92 e0       	ldi	r25, 0x02	; 2
    11c2:	0e 94 56 0b 	call	0x16ac	; 0x16ac <_ZN4UTFT7InitLCDEh>
					display.setColor(RED);
    11c6:	20 e0       	ldi	r18, 0x00	; 0
    11c8:	40 e0       	ldi	r20, 0x00	; 0
    11ca:	6f ef       	ldi	r22, 0xFF	; 255
    11cc:	82 e0       	ldi	r24, 0x02	; 2
    11ce:	92 e0       	ldi	r25, 0x02	; 2
    11d0:	0e 94 0e 0b 	call	0x161c	; 0x161c <_ZN4UTFT8setColorEhhh>
					display.setFont(BigFont);
    11d4:	62 e7       	ldi	r22, 0x72	; 114
    11d6:	70 e0       	ldi	r23, 0x00	; 0
    11d8:	82 e0       	ldi	r24, 0x02	; 2
    11da:	92 e0       	ldi	r25, 0x02	; 2
    11dc:	0e 94 48 0f 	call	0x1e90	; 0x1e90 <_ZN4UTFT7setFontEPKh>
					//rotate the display to landscape mode
					display.print("GAME OVER", CENTER, CENTER);
    11e0:	00 e0       	ldi	r16, 0x00	; 0
    11e2:	10 e0       	ldi	r17, 0x00	; 0
    11e4:	2e e0       	ldi	r18, 0x0E	; 14
    11e6:	37 e2       	ldi	r19, 0x27	; 39
    11e8:	4e e0       	ldi	r20, 0x0E	; 14
    11ea:	57 e2       	ldi	r21, 0x27	; 39
    11ec:	66 e6       	ldi	r22, 0x66	; 102
    11ee:	70 e0       	ldi	r23, 0x00	; 0
    11f0:	82 e0       	ldi	r24, 0x02	; 2
    11f2:	92 e0       	ldi	r25, 0x02	; 2
    11f4:	0e 94 6d 0e 	call	0x1cda	; 0x1cda <_ZN4UTFT5printEPKciii>
    11f8:	ff cf       	rjmp	.-2      	; 0x11f8 <main+0x2f2>
			
			
		}

		//add collision detection
		for (int i = 0; i < pipeCount; i++){
    11fa:	01 96       	adiw	r24, 0x01	; 1
    11fc:	8e cf       	rjmp	.-228    	; 0x111a <main+0x214>
    11fe:	8f ef       	ldi	r24, 0xFF	; 255
    1200:	93 e2       	ldi	r25, 0x23	; 35
    1202:	01 97       	sbiw	r24, 0x01	; 1
    1204:	f1 f7       	brne	.-4      	; 0x1202 <main+0x2fc>
    1206:	00 c0       	rjmp	.+0      	; 0x1208 <main+0x302>
    1208:	00 00       	nop
			pixelCounter = 0;
		}
		bird.drawBird();
		bird.updateBird();
		_delay_ms(5);
		display.clrScr();
    120a:	82 e0       	ldi	r24, 0x02	; 2
    120c:	92 e0       	ldi	r25, 0x02	; 2
    120e:	0e 94 d8 0a 	call	0x15b0	; 0x15b0 <_ZN4UTFT6clrScrEv>
	for(int i = 0; i < 50; i++) {
		pipes[i] = Pipe();
	}

	
	while (1)
    1212:	c3 ce       	rjmp	.-634    	; 0xf9a <main+0x94>

00001214 <_GLOBAL__sub_I_display>:
		bird.drawBird();
		bird.updateBird();
		_delay_ms(5);
		display.clrScr();
	}
    1214:	6f ef       	ldi	r22, 0xFF	; 255
    1216:	7f ef       	ldi	r23, 0xFF	; 255
    1218:	81 e0       	ldi	r24, 0x01	; 1
    121a:	90 e0       	ldi	r25, 0x00	; 0
    121c:	0e 94 53 07 	call	0xea6	; 0xea6 <_Z41__static_initialization_and_destruction_0ii>
    1220:	08 95       	ret

00001222 <SSD1289_init>:



void SSD1289_init()
{	
	DATA_PORT_LOW_DDR = 0xff;
    1222:	8f ef       	ldi	r24, 0xFF	; 255
    1224:	8a bb       	out	0x1a, r24	; 26
	DATA_PORT_HIGH_DDR = 0xff;
    1226:	81 bb       	out	0x11, r24	; 17
			
	RS_PORT_DDR |= _BV( RS_PIN);
    1228:	84 b3       	in	r24, 0x14	; 20
    122a:	80 64       	ori	r24, 0x40	; 64
    122c:	84 bb       	out	0x14, r24	; 20
				
	WR_PORT_DDR |= _BV(WR_PIN);
    122e:	84 b3       	in	r24, 0x14	; 20
    1230:	80 68       	ori	r24, 0x80	; 128
    1232:	84 bb       	out	0x14, r24	; 20

	CS_PORT_DDR |= _BV(CS_PIN);
    1234:	84 b3       	in	r24, 0x14	; 20
    1236:	82 60       	ori	r24, 0x02	; 2
    1238:	84 bb       	out	0x14, r24	; 20
		
	RD_PORT_DDR |= _BV(RD_PIN);
    123a:	87 b3       	in	r24, 0x17	; 23
    123c:	80 62       	ori	r24, 0x20	; 32
    123e:	87 bb       	out	0x17, r24	; 23
	RD_PORT |= _BV(RD_PIN);
    1240:	88 b3       	in	r24, 0x18	; 24
    1242:	80 62       	ori	r24, 0x20	; 32
    1244:	88 bb       	out	0x18, r24	; 24
		
	RESET_PORT_DDR |= _BV(RESET_PIN);
    1246:	84 b3       	in	r24, 0x14	; 20
    1248:	81 60       	ori	r24, 0x01	; 1
    124a:	84 bb       	out	0x14, r24	; 20
		
	BACK_LIGHT_PORT |= _BV(BACK_LIGHT_PIN);
    124c:	85 b3       	in	r24, 0x15	; 21
    124e:	82 60       	ori	r24, 0x02	; 2
    1250:	85 bb       	out	0x15, r24	; 21
	
	BACK_LIGHT_DDR |= _BV(BACK_LIGHT_PIN);			
    1252:	84 b3       	in	r24, 0x14	; 20
    1254:	82 60       	ori	r24, 0x02	; 2
    1256:	84 bb       	out	0x14, r24	; 20
	
	sbi(RESET_PORT, RESET_PIN);
    1258:	85 b3       	in	r24, 0x15	; 21
    125a:	81 60       	ori	r24, 0x01	; 1
    125c:	85 bb       	out	0x15, r24	; 21
    125e:	8f ef       	ldi	r24, 0xFF	; 255
    1260:	93 e2       	ldi	r25, 0x23	; 35
    1262:	01 97       	sbiw	r24, 0x01	; 1
    1264:	f1 f7       	brne	.-4      	; 0x1262 <SSD1289_init+0x40>
    1266:	00 c0       	rjmp	.+0      	; 0x1268 <SSD1289_init+0x46>
    1268:	00 00       	nop
	_delay_ms(5);
	cbi(RESET_PORT, RESET_PIN);
    126a:	85 b3       	in	r24, 0x15	; 21
    126c:	8e 7f       	andi	r24, 0xFE	; 254
    126e:	85 bb       	out	0x15, r24	; 21
    1270:	8f ef       	ldi	r24, 0xFF	; 255
    1272:	9b e6       	ldi	r25, 0x6B	; 107
    1274:	01 97       	sbiw	r24, 0x01	; 1
    1276:	f1 f7       	brne	.-4      	; 0x1274 <SSD1289_init+0x52>
    1278:	00 c0       	rjmp	.+0      	; 0x127a <SSD1289_init+0x58>
    127a:	00 00       	nop
	_delay_ms(15);
	sbi(RESET_PORT, RESET_PIN);
    127c:	85 b3       	in	r24, 0x15	; 21
    127e:	81 60       	ori	r24, 0x01	; 1
    1280:	85 bb       	out	0x15, r24	; 21
    1282:	8f ef       	ldi	r24, 0xFF	; 255
    1284:	9b e6       	ldi	r25, 0x6B	; 107
    1286:	01 97       	sbiw	r24, 0x01	; 1
    1288:	f1 f7       	brne	.-4      	; 0x1286 <SSD1289_init+0x64>
    128a:	00 c0       	rjmp	.+0      	; 0x128c <SSD1289_init+0x6a>
    128c:	00 00       	nop
	_delay_ms(15);

	cbi(CS_PORT, CS_PIN);
    128e:	85 b3       	in	r24, 0x15	; 21
    1290:	8d 7f       	andi	r24, 0xFD	; 253
    1292:	85 bb       	out	0x15, r24	; 21

	LCD_Write_COM_DATA(0x00,0x0001);
    1294:	61 e0       	ldi	r22, 0x01	; 1
    1296:	70 e0       	ldi	r23, 0x00	; 0
    1298:	80 e0       	ldi	r24, 0x00	; 0
    129a:	0e 94 42 07 	call	0xe84	; 0xe84 <LCD_Write_COM_DATA>
	LCD_Write_COM_DATA(0x03,0xA8A4);
    129e:	64 ea       	ldi	r22, 0xA4	; 164
    12a0:	78 ea       	ldi	r23, 0xA8	; 168
    12a2:	83 e0       	ldi	r24, 0x03	; 3
    12a4:	0e 94 42 07 	call	0xe84	; 0xe84 <LCD_Write_COM_DATA>
	LCD_Write_COM_DATA(0x0C,0x0000);
    12a8:	60 e0       	ldi	r22, 0x00	; 0
    12aa:	70 e0       	ldi	r23, 0x00	; 0
    12ac:	8c e0       	ldi	r24, 0x0C	; 12
    12ae:	0e 94 42 07 	call	0xe84	; 0xe84 <LCD_Write_COM_DATA>
	LCD_Write_COM_DATA(0x0D,0x080C);
    12b2:	6c e0       	ldi	r22, 0x0C	; 12
    12b4:	78 e0       	ldi	r23, 0x08	; 8
    12b6:	8d e0       	ldi	r24, 0x0D	; 13
    12b8:	0e 94 42 07 	call	0xe84	; 0xe84 <LCD_Write_COM_DATA>
	LCD_Write_COM_DATA(0x0E,0x2B00);
    12bc:	60 e0       	ldi	r22, 0x00	; 0
    12be:	7b e2       	ldi	r23, 0x2B	; 43
    12c0:	8e e0       	ldi	r24, 0x0E	; 14
    12c2:	0e 94 42 07 	call	0xe84	; 0xe84 <LCD_Write_COM_DATA>
	LCD_Write_COM_DATA(0x1E,0x00B7);
    12c6:	67 eb       	ldi	r22, 0xB7	; 183
    12c8:	70 e0       	ldi	r23, 0x00	; 0
    12ca:	8e e1       	ldi	r24, 0x1E	; 30
    12cc:	0e 94 42 07 	call	0xe84	; 0xe84 <LCD_Write_COM_DATA>
	LCD_Write_COM_DATA(0x01,0x2B3F);
    12d0:	6f e3       	ldi	r22, 0x3F	; 63
    12d2:	7b e2       	ldi	r23, 0x2B	; 43
    12d4:	81 e0       	ldi	r24, 0x01	; 1
    12d6:	0e 94 42 07 	call	0xe84	; 0xe84 <LCD_Write_COM_DATA>
	LCD_Write_COM_DATA(0x02,0x0600);
    12da:	60 e0       	ldi	r22, 0x00	; 0
    12dc:	76 e0       	ldi	r23, 0x06	; 6
    12de:	82 e0       	ldi	r24, 0x02	; 2
    12e0:	0e 94 42 07 	call	0xe84	; 0xe84 <LCD_Write_COM_DATA>
	LCD_Write_COM_DATA(0x10,0x0000);
    12e4:	60 e0       	ldi	r22, 0x00	; 0
    12e6:	70 e0       	ldi	r23, 0x00	; 0
    12e8:	80 e1       	ldi	r24, 0x10	; 16
    12ea:	0e 94 42 07 	call	0xe84	; 0xe84 <LCD_Write_COM_DATA>
	LCD_Write_COM_DATA(0x11,0x6070);
    12ee:	60 e7       	ldi	r22, 0x70	; 112
    12f0:	70 e6       	ldi	r23, 0x60	; 96
    12f2:	81 e1       	ldi	r24, 0x11	; 17
    12f4:	0e 94 42 07 	call	0xe84	; 0xe84 <LCD_Write_COM_DATA>
	LCD_Write_COM_DATA(0x05,0x0000);
    12f8:	60 e0       	ldi	r22, 0x00	; 0
    12fa:	70 e0       	ldi	r23, 0x00	; 0
    12fc:	85 e0       	ldi	r24, 0x05	; 5
    12fe:	0e 94 42 07 	call	0xe84	; 0xe84 <LCD_Write_COM_DATA>
	LCD_Write_COM_DATA(0x06,0x0000);
    1302:	60 e0       	ldi	r22, 0x00	; 0
    1304:	70 e0       	ldi	r23, 0x00	; 0
    1306:	86 e0       	ldi	r24, 0x06	; 6
    1308:	0e 94 42 07 	call	0xe84	; 0xe84 <LCD_Write_COM_DATA>
	LCD_Write_COM_DATA(0x16,0xEF1C);
    130c:	6c e1       	ldi	r22, 0x1C	; 28
    130e:	7f ee       	ldi	r23, 0xEF	; 239
    1310:	86 e1       	ldi	r24, 0x16	; 22
    1312:	0e 94 42 07 	call	0xe84	; 0xe84 <LCD_Write_COM_DATA>
	LCD_Write_COM_DATA(0x17,0x0003);
    1316:	63 e0       	ldi	r22, 0x03	; 3
    1318:	70 e0       	ldi	r23, 0x00	; 0
    131a:	87 e1       	ldi	r24, 0x17	; 23
    131c:	0e 94 42 07 	call	0xe84	; 0xe84 <LCD_Write_COM_DATA>
	LCD_Write_COM_DATA(0x07,0x0233);
    1320:	63 e3       	ldi	r22, 0x33	; 51
    1322:	72 e0       	ldi	r23, 0x02	; 2
    1324:	87 e0       	ldi	r24, 0x07	; 7
    1326:	0e 94 42 07 	call	0xe84	; 0xe84 <LCD_Write_COM_DATA>
	LCD_Write_COM_DATA(0x0B,0x0000);
    132a:	60 e0       	ldi	r22, 0x00	; 0
    132c:	70 e0       	ldi	r23, 0x00	; 0
    132e:	8b e0       	ldi	r24, 0x0B	; 11
    1330:	0e 94 42 07 	call	0xe84	; 0xe84 <LCD_Write_COM_DATA>
	LCD_Write_COM_DATA(0x0F,0x0000);
    1334:	60 e0       	ldi	r22, 0x00	; 0
    1336:	70 e0       	ldi	r23, 0x00	; 0
    1338:	8f e0       	ldi	r24, 0x0F	; 15
    133a:	0e 94 42 07 	call	0xe84	; 0xe84 <LCD_Write_COM_DATA>
	LCD_Write_COM_DATA(0x41,0x0000);
    133e:	60 e0       	ldi	r22, 0x00	; 0
    1340:	70 e0       	ldi	r23, 0x00	; 0
    1342:	81 e4       	ldi	r24, 0x41	; 65
    1344:	0e 94 42 07 	call	0xe84	; 0xe84 <LCD_Write_COM_DATA>
	LCD_Write_COM_DATA(0x42,0x0000);
    1348:	60 e0       	ldi	r22, 0x00	; 0
    134a:	70 e0       	ldi	r23, 0x00	; 0
    134c:	82 e4       	ldi	r24, 0x42	; 66
    134e:	0e 94 42 07 	call	0xe84	; 0xe84 <LCD_Write_COM_DATA>
	LCD_Write_COM_DATA(0x48,0x0000);
    1352:	60 e0       	ldi	r22, 0x00	; 0
    1354:	70 e0       	ldi	r23, 0x00	; 0
    1356:	88 e4       	ldi	r24, 0x48	; 72
    1358:	0e 94 42 07 	call	0xe84	; 0xe84 <LCD_Write_COM_DATA>
	LCD_Write_COM_DATA(0x49,0x013F);
    135c:	6f e3       	ldi	r22, 0x3F	; 63
    135e:	71 e0       	ldi	r23, 0x01	; 1
    1360:	89 e4       	ldi	r24, 0x49	; 73
    1362:	0e 94 42 07 	call	0xe84	; 0xe84 <LCD_Write_COM_DATA>
	LCD_Write_COM_DATA(0x4A,0x0000);
    1366:	60 e0       	ldi	r22, 0x00	; 0
    1368:	70 e0       	ldi	r23, 0x00	; 0
    136a:	8a e4       	ldi	r24, 0x4A	; 74
    136c:	0e 94 42 07 	call	0xe84	; 0xe84 <LCD_Write_COM_DATA>
	LCD_Write_COM_DATA(0x4B,0x0000);
    1370:	60 e0       	ldi	r22, 0x00	; 0
    1372:	70 e0       	ldi	r23, 0x00	; 0
    1374:	8b e4       	ldi	r24, 0x4B	; 75
    1376:	0e 94 42 07 	call	0xe84	; 0xe84 <LCD_Write_COM_DATA>
	LCD_Write_COM_DATA(0x44,0xEF00);
    137a:	60 e0       	ldi	r22, 0x00	; 0
    137c:	7f ee       	ldi	r23, 0xEF	; 239
    137e:	84 e4       	ldi	r24, 0x44	; 68
    1380:	0e 94 42 07 	call	0xe84	; 0xe84 <LCD_Write_COM_DATA>
	LCD_Write_COM_DATA(0x45,0x0000);
    1384:	60 e0       	ldi	r22, 0x00	; 0
    1386:	70 e0       	ldi	r23, 0x00	; 0
    1388:	85 e4       	ldi	r24, 0x45	; 69
    138a:	0e 94 42 07 	call	0xe84	; 0xe84 <LCD_Write_COM_DATA>
	LCD_Write_COM_DATA(0x46,0x013F);
    138e:	6f e3       	ldi	r22, 0x3F	; 63
    1390:	71 e0       	ldi	r23, 0x01	; 1
    1392:	86 e4       	ldi	r24, 0x46	; 70
    1394:	0e 94 42 07 	call	0xe84	; 0xe84 <LCD_Write_COM_DATA>
	LCD_Write_COM_DATA(0x30,0x0707);
    1398:	67 e0       	ldi	r22, 0x07	; 7
    139a:	77 e0       	ldi	r23, 0x07	; 7
    139c:	80 e3       	ldi	r24, 0x30	; 48
    139e:	0e 94 42 07 	call	0xe84	; 0xe84 <LCD_Write_COM_DATA>
	LCD_Write_COM_DATA(0x31,0x0204);
    13a2:	64 e0       	ldi	r22, 0x04	; 4
    13a4:	72 e0       	ldi	r23, 0x02	; 2
    13a6:	81 e3       	ldi	r24, 0x31	; 49
    13a8:	0e 94 42 07 	call	0xe84	; 0xe84 <LCD_Write_COM_DATA>
	LCD_Write_COM_DATA(0x32,0x0204);
    13ac:	64 e0       	ldi	r22, 0x04	; 4
    13ae:	72 e0       	ldi	r23, 0x02	; 2
    13b0:	82 e3       	ldi	r24, 0x32	; 50
    13b2:	0e 94 42 07 	call	0xe84	; 0xe84 <LCD_Write_COM_DATA>
	LCD_Write_COM_DATA(0x33,0x0502);
    13b6:	62 e0       	ldi	r22, 0x02	; 2
    13b8:	75 e0       	ldi	r23, 0x05	; 5
    13ba:	83 e3       	ldi	r24, 0x33	; 51
    13bc:	0e 94 42 07 	call	0xe84	; 0xe84 <LCD_Write_COM_DATA>
	LCD_Write_COM_DATA(0x34,0x0507);
    13c0:	67 e0       	ldi	r22, 0x07	; 7
    13c2:	75 e0       	ldi	r23, 0x05	; 5
    13c4:	84 e3       	ldi	r24, 0x34	; 52
    13c6:	0e 94 42 07 	call	0xe84	; 0xe84 <LCD_Write_COM_DATA>
	LCD_Write_COM_DATA(0x35,0x0204);
    13ca:	64 e0       	ldi	r22, 0x04	; 4
    13cc:	72 e0       	ldi	r23, 0x02	; 2
    13ce:	85 e3       	ldi	r24, 0x35	; 53
    13d0:	0e 94 42 07 	call	0xe84	; 0xe84 <LCD_Write_COM_DATA>
	LCD_Write_COM_DATA(0x36,0x0204);
    13d4:	64 e0       	ldi	r22, 0x04	; 4
    13d6:	72 e0       	ldi	r23, 0x02	; 2
    13d8:	86 e3       	ldi	r24, 0x36	; 54
    13da:	0e 94 42 07 	call	0xe84	; 0xe84 <LCD_Write_COM_DATA>
	LCD_Write_COM_DATA(0x37,0x0502);
    13de:	62 e0       	ldi	r22, 0x02	; 2
    13e0:	75 e0       	ldi	r23, 0x05	; 5
    13e2:	87 e3       	ldi	r24, 0x37	; 55
    13e4:	0e 94 42 07 	call	0xe84	; 0xe84 <LCD_Write_COM_DATA>
	LCD_Write_COM_DATA(0x3A,0x0302);
    13e8:	62 e0       	ldi	r22, 0x02	; 2
    13ea:	73 e0       	ldi	r23, 0x03	; 3
    13ec:	8a e3       	ldi	r24, 0x3A	; 58
    13ee:	0e 94 42 07 	call	0xe84	; 0xe84 <LCD_Write_COM_DATA>
	LCD_Write_COM_DATA(0x3B,0x0302);
    13f2:	62 e0       	ldi	r22, 0x02	; 2
    13f4:	73 e0       	ldi	r23, 0x03	; 3
    13f6:	8b e3       	ldi	r24, 0x3B	; 59
    13f8:	0e 94 42 07 	call	0xe84	; 0xe84 <LCD_Write_COM_DATA>
	LCD_Write_COM_DATA(0x23,0x0000);
    13fc:	60 e0       	ldi	r22, 0x00	; 0
    13fe:	70 e0       	ldi	r23, 0x00	; 0
    1400:	83 e2       	ldi	r24, 0x23	; 35
    1402:	0e 94 42 07 	call	0xe84	; 0xe84 <LCD_Write_COM_DATA>
	LCD_Write_COM_DATA(0x24,0x0000);
    1406:	60 e0       	ldi	r22, 0x00	; 0
    1408:	70 e0       	ldi	r23, 0x00	; 0
    140a:	84 e2       	ldi	r24, 0x24	; 36
    140c:	0e 94 42 07 	call	0xe84	; 0xe84 <LCD_Write_COM_DATA>
	LCD_Write_COM_DATA(0x25,0x8000);
    1410:	60 e0       	ldi	r22, 0x00	; 0
    1412:	70 e8       	ldi	r23, 0x80	; 128
    1414:	85 e2       	ldi	r24, 0x25	; 37
    1416:	0e 94 42 07 	call	0xe84	; 0xe84 <LCD_Write_COM_DATA>
	LCD_Write_COM_DATA(0x4f,0x0000);
    141a:	60 e0       	ldi	r22, 0x00	; 0
    141c:	70 e0       	ldi	r23, 0x00	; 0
    141e:	8f e4       	ldi	r24, 0x4F	; 79
    1420:	0e 94 42 07 	call	0xe84	; 0xe84 <LCD_Write_COM_DATA>
	LCD_Write_COM_DATA(0x4e,0x0000);
    1424:	60 e0       	ldi	r22, 0x00	; 0
    1426:	70 e0       	ldi	r23, 0x00	; 0
    1428:	8e e4       	ldi	r24, 0x4E	; 78
    142a:	0e 94 42 07 	call	0xe84	; 0xe84 <LCD_Write_COM_DATA>
	LCD_Write_COM(0x22);
    142e:	82 e2       	ldi	r24, 0x22	; 34
    1430:	0e 94 2e 07 	call	0xe5c	; 0xe5c <LCD_Write_COM>


	sbi(CS_PORT, CS_PIN);
    1434:	85 b3       	in	r24, 0x15	; 21
    1436:	82 60       	ori	r24, 0x02	; 2
    1438:	85 bb       	out	0x15, r24	; 21
    143a:	08 95       	ret

0000143c <_ZN4UTFTC1Ev>:
		}
		st[c2+f]=0;
	}

	print(st,x,y);
}
    143c:	4f ee       	ldi	r20, 0xEF	; 239
    143e:	50 e0       	ldi	r21, 0x00	; 0
    1440:	60 e0       	ldi	r22, 0x00	; 0
    1442:	70 e0       	ldi	r23, 0x00	; 0
    1444:	fc 01       	movw	r30, r24
    1446:	45 83       	std	Z+5, r20	; 0x05
    1448:	56 83       	std	Z+6, r21	; 0x06
    144a:	67 83       	std	Z+7, r22	; 0x07
    144c:	70 87       	std	Z+8, r23	; 0x08
    144e:	4f e3       	ldi	r20, 0x3F	; 63
    1450:	51 e0       	ldi	r21, 0x01	; 1
    1452:	60 e0       	ldi	r22, 0x00	; 0
    1454:	70 e0       	ldi	r23, 0x00	; 0
    1456:	41 87       	std	Z+9, r20	; 0x09
    1458:	52 87       	std	Z+10, r21	; 0x0a
    145a:	63 87       	std	Z+11, r22	; 0x0b
    145c:	74 87       	std	Z+12, r23	; 0x0c
    145e:	0e 94 11 09 	call	0x1222	; 0x1222 <SSD1289_init>
    1462:	08 95       	ret

00001464 <_ZN4UTFT5setXYEjjjj>:
    1464:	ef 92       	push	r14
    1466:	ff 92       	push	r15
    1468:	0f 93       	push	r16
    146a:	1f 93       	push	r17
    146c:	cf 93       	push	r28
    146e:	df 93       	push	r29
    1470:	eb 01       	movw	r28, r22
    1472:	e4 2e       	mov	r14, r20
    1474:	f5 2e       	mov	r15, r21
    1476:	fc 01       	movw	r30, r24
    1478:	44 81       	ldd	r20, Z+4	; 0x04
    147a:	41 30       	cpi	r20, 0x01	; 1
    147c:	89 f4       	brne	.+34     	; 0x14a0 <_ZN4UTFT5setXYEjjjj+0x3c>
    147e:	81 85       	ldd	r24, Z+9	; 0x09
    1480:	92 85       	ldd	r25, Z+10	; 0x0a
    1482:	a3 85       	ldd	r26, Z+11	; 0x0b
    1484:	b4 85       	ldd	r27, Z+12	; 0x0c
    1486:	ac 01       	movw	r20, r24
    1488:	46 1b       	sub	r20, r22
    148a:	57 0b       	sbc	r21, r23
    148c:	82 1b       	sub	r24, r18
    148e:	93 0b       	sbc	r25, r19
    1490:	20 2f       	mov	r18, r16
    1492:	31 2f       	mov	r19, r17
    1494:	04 2f       	mov	r16, r20
    1496:	15 2f       	mov	r17, r21
    1498:	ce 2d       	mov	r28, r14
    149a:	df 2d       	mov	r29, r15
    149c:	e8 2e       	mov	r14, r24
    149e:	f9 2e       	mov	r15, r25
    14a0:	32 2f       	mov	r19, r18
    14a2:	22 27       	eor	r18, r18
    14a4:	be 01       	movw	r22, r28
    14a6:	62 0f       	add	r22, r18
    14a8:	73 1f       	adc	r23, r19
    14aa:	84 e4       	ldi	r24, 0x44	; 68
    14ac:	0e 94 42 07 	call	0xe84	; 0xe84 <LCD_Write_COM_DATA>
    14b0:	6e 2d       	mov	r22, r14
    14b2:	7f 2d       	mov	r23, r15
    14b4:	85 e4       	ldi	r24, 0x45	; 69
    14b6:	0e 94 42 07 	call	0xe84	; 0xe84 <LCD_Write_COM_DATA>
    14ba:	60 2f       	mov	r22, r16
    14bc:	71 2f       	mov	r23, r17
    14be:	86 e4       	ldi	r24, 0x46	; 70
    14c0:	0e 94 42 07 	call	0xe84	; 0xe84 <LCD_Write_COM_DATA>
    14c4:	be 01       	movw	r22, r28
    14c6:	8e e4       	ldi	r24, 0x4E	; 78
    14c8:	0e 94 42 07 	call	0xe84	; 0xe84 <LCD_Write_COM_DATA>
    14cc:	6e 2d       	mov	r22, r14
    14ce:	7f 2d       	mov	r23, r15
    14d0:	8f e4       	ldi	r24, 0x4F	; 79
    14d2:	0e 94 42 07 	call	0xe84	; 0xe84 <LCD_Write_COM_DATA>
    14d6:	82 e2       	ldi	r24, 0x22	; 34
    14d8:	0e 94 2e 07 	call	0xe5c	; 0xe5c <LCD_Write_COM>
    14dc:	85 b3       	in	r24, 0x15	; 21
    14de:	80 64       	ori	r24, 0x40	; 64
    14e0:	85 bb       	out	0x15, r24	; 21
    14e2:	df 91       	pop	r29
    14e4:	cf 91       	pop	r28
    14e6:	1f 91       	pop	r17
    14e8:	0f 91       	pop	r16
    14ea:	ff 90       	pop	r15
    14ec:	ef 90       	pop	r14
    14ee:	08 95       	ret

000014f0 <_ZN4UTFT8fillRectEiiii>:
    14f0:	8f 92       	push	r8
    14f2:	9f 92       	push	r9
    14f4:	af 92       	push	r10
    14f6:	bf 92       	push	r11
    14f8:	cf 92       	push	r12
    14fa:	df 92       	push	r13
    14fc:	ef 92       	push	r14
    14fe:	ff 92       	push	r15
    1500:	0f 93       	push	r16
    1502:	1f 93       	push	r17
    1504:	cf 93       	push	r28
    1506:	df 93       	push	r29
    1508:	4c 01       	movw	r8, r24
    150a:	5b 01       	movw	r10, r22
    150c:	7a 01       	movw	r14, r20
    150e:	69 01       	movw	r12, r18
    1510:	e8 01       	movw	r28, r16
    1512:	26 17       	cp	r18, r22
    1514:	37 07       	cpc	r19, r23
    1516:	24 f4       	brge	.+8      	; 0x1520 <_ZN4UTFT8fillRectEiiii+0x30>
    1518:	8b 2d       	mov	r24, r11
    151a:	59 01       	movw	r10, r18
    151c:	c6 2e       	mov	r12, r22
    151e:	d8 2e       	mov	r13, r24
    1520:	ce 15       	cp	r28, r14
    1522:	df 05       	cpc	r29, r15
    1524:	2c f4       	brge	.+10     	; 0x1530 <_ZN4UTFT8fillRectEiiii+0x40>
    1526:	9e 2d       	mov	r25, r14
    1528:	8f 2d       	mov	r24, r15
    152a:	7e 01       	movw	r14, r28
    152c:	c9 2f       	mov	r28, r25
    152e:	d8 2f       	mov	r29, r24
    1530:	85 b3       	in	r24, 0x15	; 21
    1532:	8d 7f       	andi	r24, 0xFD	; 253
    1534:	85 bb       	out	0x15, r24	; 21
    1536:	8e 01       	movw	r16, r28
    1538:	96 01       	movw	r18, r12
    153a:	a7 01       	movw	r20, r14
    153c:	b5 01       	movw	r22, r10
    153e:	c4 01       	movw	r24, r8
    1540:	0e 94 32 0a 	call	0x1464	; 0x1464 <_ZN4UTFT5setXYEjjjj>
    1544:	f4 01       	movw	r30, r8
    1546:	80 81       	ld	r24, Z
    1548:	82 bb       	out	0x12, r24	; 18
    154a:	81 81       	ldd	r24, Z+1	; 0x01
    154c:	8b bb       	out	0x1b, r24	; 27
    154e:	96 01       	movw	r18, r12
    1550:	2a 19       	sub	r18, r10
    1552:	3b 09       	sbc	r19, r11
    1554:	c9 01       	movw	r24, r18
    1556:	33 0f       	add	r19, r19
    1558:	aa 0b       	sbc	r26, r26
    155a:	bb 0b       	sbc	r27, r27
    155c:	9c 01       	movw	r18, r24
    155e:	ad 01       	movw	r20, r26
    1560:	2f 5f       	subi	r18, 0xFF	; 255
    1562:	3f 4f       	sbci	r19, 0xFF	; 255
    1564:	4f 4f       	sbci	r20, 0xFF	; 255
    1566:	5f 4f       	sbci	r21, 0xFF	; 255
    1568:	be 01       	movw	r22, r28
    156a:	6e 19       	sub	r22, r14
    156c:	7f 09       	sbc	r23, r15
    156e:	cb 01       	movw	r24, r22
    1570:	77 0f       	add	r23, r23
    1572:	aa 0b       	sbc	r26, r26
    1574:	bb 0b       	sbc	r27, r27
    1576:	bc 01       	movw	r22, r24
    1578:	cd 01       	movw	r24, r26
    157a:	6f 5f       	subi	r22, 0xFF	; 255
    157c:	7f 4f       	sbci	r23, 0xFF	; 255
    157e:	8f 4f       	sbci	r24, 0xFF	; 255
    1580:	9f 4f       	sbci	r25, 0xFF	; 255
    1582:	0e 94 96 11 	call	0x232c	; 0x232c <__mulsi3>
    1586:	0e 94 e5 06 	call	0xdca	; 0xdca <fastfill>
    158a:	8f ef       	ldi	r24, 0xFF	; 255
    158c:	8b bb       	out	0x1b, r24	; 27
    158e:	82 bb       	out	0x12, r24	; 18
    1590:	85 b3       	in	r24, 0x15	; 21
    1592:	8d 7f       	andi	r24, 0xFD	; 253
    1594:	85 bb       	out	0x15, r24	; 21
    1596:	df 91       	pop	r29
    1598:	cf 91       	pop	r28
    159a:	1f 91       	pop	r17
    159c:	0f 91       	pop	r16
    159e:	ff 90       	pop	r15
    15a0:	ef 90       	pop	r14
    15a2:	df 90       	pop	r13
    15a4:	cf 90       	pop	r12
    15a6:	bf 90       	pop	r11
    15a8:	af 90       	pop	r10
    15aa:	9f 90       	pop	r9
    15ac:	8f 90       	pop	r8
    15ae:	08 95       	ret

000015b0 <_ZN4UTFT6clrScrEv>:
    15b0:	85 b3       	in	r24, 0x15	; 21
    15b2:	8d 7f       	andi	r24, 0xFD	; 253
    15b4:	85 bb       	out	0x15, r24	; 21
    15b6:	60 e0       	ldi	r22, 0x00	; 0
    15b8:	7f ee       	ldi	r23, 0xEF	; 239
    15ba:	84 e4       	ldi	r24, 0x44	; 68
    15bc:	0e 94 42 07 	call	0xe84	; 0xe84 <LCD_Write_COM_DATA>
    15c0:	60 e0       	ldi	r22, 0x00	; 0
    15c2:	70 e0       	ldi	r23, 0x00	; 0
    15c4:	85 e4       	ldi	r24, 0x45	; 69
    15c6:	0e 94 42 07 	call	0xe84	; 0xe84 <LCD_Write_COM_DATA>
    15ca:	6f e3       	ldi	r22, 0x3F	; 63
    15cc:	71 e0       	ldi	r23, 0x01	; 1
    15ce:	86 e4       	ldi	r24, 0x46	; 70
    15d0:	0e 94 42 07 	call	0xe84	; 0xe84 <LCD_Write_COM_DATA>
    15d4:	60 e0       	ldi	r22, 0x00	; 0
    15d6:	70 e0       	ldi	r23, 0x00	; 0
    15d8:	8e e4       	ldi	r24, 0x4E	; 78
    15da:	0e 94 42 07 	call	0xe84	; 0xe84 <LCD_Write_COM_DATA>
    15de:	60 e0       	ldi	r22, 0x00	; 0
    15e0:	70 e0       	ldi	r23, 0x00	; 0
    15e2:	8f e4       	ldi	r24, 0x4F	; 79
    15e4:	0e 94 42 07 	call	0xe84	; 0xe84 <LCD_Write_COM_DATA>
    15e8:	68 e7       	ldi	r22, 0x78	; 120
    15ea:	70 e6       	ldi	r23, 0x60	; 96
    15ec:	81 e1       	ldi	r24, 0x11	; 17
    15ee:	0e 94 42 07 	call	0xe84	; 0xe84 <LCD_Write_COM_DATA>
    15f2:	82 e2       	ldi	r24, 0x22	; 34
    15f4:	0e 94 2e 07 	call	0xe5c	; 0xe5c <LCD_Write_COM>
    15f8:	85 b3       	in	r24, 0x15	; 21
    15fa:	80 64       	ori	r24, 0x40	; 64
    15fc:	85 bb       	out	0x15, r24	; 21
    15fe:	1b ba       	out	0x1b, r1	; 27
    1600:	12 ba       	out	0x12, r1	; 18
    1602:	60 e0       	ldi	r22, 0x00	; 0
    1604:	7c e2       	ldi	r23, 0x2C	; 44
    1606:	81 e0       	ldi	r24, 0x01	; 1
    1608:	90 e0       	ldi	r25, 0x00	; 0
    160a:	0e 94 e5 06 	call	0xdca	; 0xdca <fastfill>
    160e:	8f ef       	ldi	r24, 0xFF	; 255
    1610:	8b bb       	out	0x1b, r24	; 27
    1612:	82 bb       	out	0x12, r24	; 18
    1614:	85 b3       	in	r24, 0x15	; 21
    1616:	8d 7f       	andi	r24, 0xFD	; 253
    1618:	85 bb       	out	0x15, r24	; 21
    161a:	08 95       	ret

0000161c <_ZN4UTFT8setColorEhhh>:
    161c:	e4 2f       	mov	r30, r20
    161e:	f0 e0       	ldi	r31, 0x00	; 0
    1620:	f5 95       	asr	r31
    1622:	e7 95       	ror	r30
    1624:	f5 95       	asr	r31
    1626:	e7 95       	ror	r30
    1628:	f5 95       	asr	r31
    162a:	e7 95       	ror	r30
    162c:	f5 95       	asr	r31
    162e:	e7 95       	ror	r30
    1630:	f5 95       	asr	r31
    1632:	e7 95       	ror	r30
    1634:	68 7f       	andi	r22, 0xF8	; 248
    1636:	e6 2b       	or	r30, r22
    1638:	dc 01       	movw	r26, r24
    163a:	ec 93       	st	X, r30
    163c:	4c 71       	andi	r20, 0x1C	; 28
    163e:	50 e0       	ldi	r21, 0x00	; 0
    1640:	44 0f       	add	r20, r20
    1642:	55 1f       	adc	r21, r21
    1644:	44 0f       	add	r20, r20
    1646:	55 1f       	adc	r21, r21
    1648:	44 0f       	add	r20, r20
    164a:	55 1f       	adc	r21, r21
    164c:	30 e0       	ldi	r19, 0x00	; 0
    164e:	35 95       	asr	r19
    1650:	27 95       	ror	r18
    1652:	35 95       	asr	r19
    1654:	27 95       	ror	r18
    1656:	35 95       	asr	r19
    1658:	27 95       	ror	r18
    165a:	42 2b       	or	r20, r18
    165c:	11 96       	adiw	r26, 0x01	; 1
    165e:	4c 93       	st	X, r20
    1660:	08 95       	ret

00001662 <_ZN4UTFT12setBackColorEhhh>:
    1662:	e4 2f       	mov	r30, r20
    1664:	f0 e0       	ldi	r31, 0x00	; 0
    1666:	f5 95       	asr	r31
    1668:	e7 95       	ror	r30
    166a:	f5 95       	asr	r31
    166c:	e7 95       	ror	r30
    166e:	f5 95       	asr	r31
    1670:	e7 95       	ror	r30
    1672:	f5 95       	asr	r31
    1674:	e7 95       	ror	r30
    1676:	f5 95       	asr	r31
    1678:	e7 95       	ror	r30
    167a:	68 7f       	andi	r22, 0xF8	; 248
    167c:	e6 2b       	or	r30, r22
    167e:	dc 01       	movw	r26, r24
    1680:	12 96       	adiw	r26, 0x02	; 2
    1682:	ec 93       	st	X, r30
    1684:	12 97       	sbiw	r26, 0x02	; 2
    1686:	4c 71       	andi	r20, 0x1C	; 28
    1688:	50 e0       	ldi	r21, 0x00	; 0
    168a:	44 0f       	add	r20, r20
    168c:	55 1f       	adc	r21, r21
    168e:	44 0f       	add	r20, r20
    1690:	55 1f       	adc	r21, r21
    1692:	44 0f       	add	r20, r20
    1694:	55 1f       	adc	r21, r21
    1696:	30 e0       	ldi	r19, 0x00	; 0
    1698:	35 95       	asr	r19
    169a:	27 95       	ror	r18
    169c:	35 95       	asr	r19
    169e:	27 95       	ror	r18
    16a0:	35 95       	asr	r19
    16a2:	27 95       	ror	r18
    16a4:	42 2b       	or	r20, r18
    16a6:	13 96       	adiw	r26, 0x03	; 3
    16a8:	4c 93       	st	X, r20
    16aa:	08 95       	ret

000016ac <_ZN4UTFT7InitLCDEh>:
    16ac:	cf 93       	push	r28
    16ae:	df 93       	push	r29
    16b0:	ec 01       	movw	r28, r24
    16b2:	6c 83       	std	Y+4, r22	; 0x04
    16b4:	2f ef       	ldi	r18, 0xFF	; 255
    16b6:	4f ef       	ldi	r20, 0xFF	; 255
    16b8:	6f ef       	ldi	r22, 0xFF	; 255
    16ba:	0e 94 0e 0b 	call	0x161c	; 0x161c <_ZN4UTFT8setColorEhhh>
    16be:	20 e0       	ldi	r18, 0x00	; 0
    16c0:	40 e0       	ldi	r20, 0x00	; 0
    16c2:	60 e0       	ldi	r22, 0x00	; 0
    16c4:	ce 01       	movw	r24, r28
    16c6:	0e 94 31 0b 	call	0x1662	; 0x1662 <_ZN4UTFT12setBackColorEhhh>
    16ca:	1e 86       	std	Y+14, r1	; 0x0e
    16cc:	1d 86       	std	Y+13, r1	; 0x0d
    16ce:	df 91       	pop	r29
    16d0:	cf 91       	pop	r28
    16d2:	08 95       	ret

000016d4 <_ZN4UTFT8setPixelEj>:
    16d4:	87 2f       	mov	r24, r23
    16d6:	0e 94 35 07 	call	0xe6a	; 0xe6a <LCD_Write_DATA>
    16da:	08 95       	ret

000016dc <_ZN4UTFT9drawHLineEiii>:
    16dc:	ef 92       	push	r14
    16de:	ff 92       	push	r15
    16e0:	0f 93       	push	r16
    16e2:	1f 93       	push	r17
    16e4:	cf 93       	push	r28
    16e6:	df 93       	push	r29
    16e8:	7c 01       	movw	r14, r24
    16ea:	e9 01       	movw	r28, r18
    16ec:	dd 23       	and	r29, r29
    16ee:	2c f4       	brge	.+10     	; 0x16fa <_ZN4UTFT9drawHLineEiii+0x1e>
    16f0:	62 0f       	add	r22, r18
    16f2:	73 1f       	adc	r23, r19
    16f4:	d1 95       	neg	r29
    16f6:	c1 95       	neg	r28
    16f8:	d1 09       	sbc	r29, r1
    16fa:	85 b3       	in	r24, 0x15	; 21
    16fc:	8d 7f       	andi	r24, 0xFD	; 253
    16fe:	85 bb       	out	0x15, r24	; 21
    1700:	9b 01       	movw	r18, r22
    1702:	2c 0f       	add	r18, r28
    1704:	3d 1f       	adc	r19, r29
    1706:	8a 01       	movw	r16, r20
    1708:	c7 01       	movw	r24, r14
    170a:	0e 94 32 0a 	call	0x1464	; 0x1464 <_ZN4UTFT5setXYEjjjj>
    170e:	f7 01       	movw	r30, r14
    1710:	80 81       	ld	r24, Z
    1712:	82 bb       	out	0x12, r24	; 18
    1714:	81 81       	ldd	r24, Z+1	; 0x01
    1716:	8b bb       	out	0x1b, r24	; 27
    1718:	be 01       	movw	r22, r28
    171a:	dd 0f       	add	r29, r29
    171c:	88 0b       	sbc	r24, r24
    171e:	99 0b       	sbc	r25, r25
    1720:	0e 94 e5 06 	call	0xdca	; 0xdca <fastfill>
    1724:	8f ef       	ldi	r24, 0xFF	; 255
    1726:	8b bb       	out	0x1b, r24	; 27
    1728:	82 bb       	out	0x12, r24	; 18
    172a:	85 b3       	in	r24, 0x15	; 21
    172c:	82 60       	ori	r24, 0x02	; 2
    172e:	85 bb       	out	0x15, r24	; 21
    1730:	df 91       	pop	r29
    1732:	cf 91       	pop	r28
    1734:	1f 91       	pop	r17
    1736:	0f 91       	pop	r16
    1738:	ff 90       	pop	r15
    173a:	ef 90       	pop	r14
    173c:	08 95       	ret

0000173e <_ZN4UTFT10fillCircleEiii>:
    173e:	4f 92       	push	r4
    1740:	5f 92       	push	r5
    1742:	6f 92       	push	r6
    1744:	7f 92       	push	r7
    1746:	8f 92       	push	r8
    1748:	9f 92       	push	r9
    174a:	af 92       	push	r10
    174c:	bf 92       	push	r11
    174e:	cf 92       	push	r12
    1750:	df 92       	push	r13
    1752:	ef 92       	push	r14
    1754:	ff 92       	push	r15
    1756:	0f 93       	push	r16
    1758:	1f 93       	push	r17
    175a:	cf 93       	push	r28
    175c:	df 93       	push	r29
    175e:	3c 01       	movw	r6, r24
    1760:	4b 01       	movw	r8, r22
    1762:	5a 01       	movw	r10, r20
    1764:	79 01       	movw	r14, r18
    1766:	44 24       	eor	r4, r4
    1768:	55 24       	eor	r5, r5
    176a:	42 1a       	sub	r4, r18
    176c:	53 0a       	sbc	r5, r19
    176e:	82 01       	movw	r16, r4
    1770:	10 16       	cp	r1, r16
    1772:	11 06       	cpc	r1, r17
    1774:	cc f1       	brlt	.+114    	; 0x17e8 <_ZN4UTFT10fillCircleEiii+0xaa>
    1776:	e2 01       	movw	r28, r4
    1778:	1c 16       	cp	r1, r28
    177a:	1d 06       	cpc	r1, r29
    177c:	94 f1       	brlt	.+100    	; 0x17e2 <_ZN4UTFT10fillCircleEiii+0xa4>
    177e:	cc 9f       	mul	r28, r28
    1780:	c0 01       	movw	r24, r0
    1782:	cd 9f       	mul	r28, r29
    1784:	90 0d       	add	r25, r0
    1786:	90 0d       	add	r25, r0
    1788:	11 24       	eor	r1, r1
    178a:	00 9f       	mul	r16, r16
    178c:	90 01       	movw	r18, r0
    178e:	01 9f       	mul	r16, r17
    1790:	30 0d       	add	r19, r0
    1792:	30 0d       	add	r19, r0
    1794:	11 24       	eor	r1, r1
    1796:	82 0f       	add	r24, r18
    1798:	93 1f       	adc	r25, r19
    179a:	ee 9c       	mul	r14, r14
    179c:	90 01       	movw	r18, r0
    179e:	ef 9c       	mul	r14, r15
    17a0:	30 0d       	add	r19, r0
    17a2:	30 0d       	add	r19, r0
    17a4:	11 24       	eor	r1, r1
    17a6:	28 17       	cp	r18, r24
    17a8:	39 07       	cpc	r19, r25
    17aa:	cc f0       	brlt	.+50     	; 0x17de <_ZN4UTFT10fillCircleEiii+0xa0>
    17ac:	cc 24       	eor	r12, r12
    17ae:	dd 24       	eor	r13, r13
    17b0:	cc 1a       	sub	r12, r28
    17b2:	dd 0a       	sbc	r13, r29
    17b4:	cc 0c       	add	r12, r12
    17b6:	dd 1c       	adc	r13, r13
    17b8:	c8 0d       	add	r28, r8
    17ba:	d9 1d       	adc	r29, r9
    17bc:	96 01       	movw	r18, r12
    17be:	a8 01       	movw	r20, r16
    17c0:	4a 0d       	add	r20, r10
    17c2:	5b 1d       	adc	r21, r11
    17c4:	be 01       	movw	r22, r28
    17c6:	c3 01       	movw	r24, r6
    17c8:	0e 94 6e 0b 	call	0x16dc	; 0x16dc <_ZN4UTFT9drawHLineEiii>
    17cc:	96 01       	movw	r18, r12
    17ce:	a5 01       	movw	r20, r10
    17d0:	40 1b       	sub	r20, r16
    17d2:	51 0b       	sbc	r21, r17
    17d4:	be 01       	movw	r22, r28
    17d6:	c3 01       	movw	r24, r6
    17d8:	0e 94 6e 0b 	call	0x16dc	; 0x16dc <_ZN4UTFT9drawHLineEiii>
    17dc:	02 c0       	rjmp	.+4      	; 0x17e2 <_ZN4UTFT10fillCircleEiii+0xa4>
    17de:	21 96       	adiw	r28, 0x01	; 1
    17e0:	cb cf       	rjmp	.-106    	; 0x1778 <_ZN4UTFT10fillCircleEiii+0x3a>
    17e2:	0f 5f       	subi	r16, 0xFF	; 255
    17e4:	1f 4f       	sbci	r17, 0xFF	; 255
    17e6:	c4 cf       	rjmp	.-120    	; 0x1770 <_ZN4UTFT10fillCircleEiii+0x32>
    17e8:	df 91       	pop	r29
    17ea:	cf 91       	pop	r28
    17ec:	1f 91       	pop	r17
    17ee:	0f 91       	pop	r16
    17f0:	ff 90       	pop	r15
    17f2:	ef 90       	pop	r14
    17f4:	df 90       	pop	r13
    17f6:	cf 90       	pop	r12
    17f8:	bf 90       	pop	r11
    17fa:	af 90       	pop	r10
    17fc:	9f 90       	pop	r9
    17fe:	8f 90       	pop	r8
    1800:	7f 90       	pop	r7
    1802:	6f 90       	pop	r6
    1804:	5f 90       	pop	r5
    1806:	4f 90       	pop	r4
    1808:	08 95       	ret

0000180a <_ZN4UTFT9printCharEhii>:
    180a:	af 92       	push	r10
    180c:	bf 92       	push	r11
    180e:	cf 92       	push	r12
    1810:	df 92       	push	r13
    1812:	ef 92       	push	r14
    1814:	ff 92       	push	r15
    1816:	0f 93       	push	r16
    1818:	1f 93       	push	r17
    181a:	cf 93       	push	r28
    181c:	df 93       	push	r29
    181e:	ec 01       	movw	r28, r24
    1820:	7a 01       	movw	r14, r20
    1822:	89 01       	movw	r16, r18
    1824:	85 b3       	in	r24, 0x15	; 21
    1826:	8d 7f       	andi	r24, 0xFD	; 253
    1828:	85 bb       	out	0x15, r24	; 21
    182a:	8c 81       	ldd	r24, Y+4	; 0x04
    182c:	81 11       	cpse	r24, r1
    182e:	69 c0       	rjmp	.+210    	; 0x1902 <_ZN4UTFT9printCharEhii+0xf8>
    1830:	29 89       	ldd	r18, Y+17	; 0x11
    1832:	86 2f       	mov	r24, r22
    1834:	90 e0       	ldi	r25, 0x00	; 0
    1836:	82 1b       	sub	r24, r18
    1838:	91 09       	sbc	r25, r1
    183a:	4f 85       	ldd	r20, Y+15	; 0x0f
    183c:	54 2f       	mov	r21, r20
    183e:	56 95       	lsr	r21
    1840:	56 95       	lsr	r21
    1842:	56 95       	lsr	r21
    1844:	28 89       	ldd	r18, Y+16	; 0x10
    1846:	30 e0       	ldi	r19, 0x00	; 0
    1848:	52 9f       	mul	r21, r18
    184a:	b0 01       	movw	r22, r0
    184c:	53 9f       	mul	r21, r19
    184e:	70 0d       	add	r23, r0
    1850:	11 24       	eor	r1, r1
    1852:	86 9f       	mul	r24, r22
    1854:	60 01       	movw	r12, r0
    1856:	87 9f       	mul	r24, r23
    1858:	d0 0c       	add	r13, r0
    185a:	96 9f       	mul	r25, r22
    185c:	d0 0c       	add	r13, r0
    185e:	11 24       	eor	r1, r1
    1860:	84 e0       	ldi	r24, 0x04	; 4
    1862:	c8 0e       	add	r12, r24
    1864:	d1 1c       	adc	r13, r1
    1866:	c7 01       	movw	r24, r14
    1868:	84 0f       	add	r24, r20
    186a:	91 1d       	adc	r25, r1
    186c:	20 0f       	add	r18, r16
    186e:	31 1f       	adc	r19, r17
    1870:	59 01       	movw	r10, r18
    1872:	41 e0       	ldi	r20, 0x01	; 1
    1874:	a4 1a       	sub	r10, r20
    1876:	b1 08       	sbc	r11, r1
    1878:	60 e0       	ldi	r22, 0x00	; 0
    187a:	70 e0       	ldi	r23, 0x00	; 0
    187c:	7f ef       	ldi	r23, 0xFF	; 255
    187e:	78 0f       	add	r23, r24
    1880:	6e 0d       	add	r22, r14
    1882:	7f 1d       	adc	r23, r15
    1884:	84 e4       	ldi	r24, 0x44	; 68
    1886:	0e 94 42 07 	call	0xe84	; 0xe84 <LCD_Write_COM_DATA>
    188a:	b8 01       	movw	r22, r16
    188c:	85 e4       	ldi	r24, 0x45	; 69
    188e:	0e 94 42 07 	call	0xe84	; 0xe84 <LCD_Write_COM_DATA>
    1892:	b5 01       	movw	r22, r10
    1894:	86 e4       	ldi	r24, 0x46	; 70
    1896:	0e 94 42 07 	call	0xe84	; 0xe84 <LCD_Write_COM_DATA>
    189a:	b7 01       	movw	r22, r14
    189c:	8e e4       	ldi	r24, 0x4E	; 78
    189e:	0e 94 42 07 	call	0xe84	; 0xe84 <LCD_Write_COM_DATA>
    18a2:	b8 01       	movw	r22, r16
    18a4:	8f e4       	ldi	r24, 0x4F	; 79
    18a6:	0e 94 42 07 	call	0xe84	; 0xe84 <LCD_Write_COM_DATA>
    18aa:	60 e7       	ldi	r22, 0x70	; 112
    18ac:	70 e6       	ldi	r23, 0x60	; 96
    18ae:	81 e1       	ldi	r24, 0x11	; 17
    18b0:	0e 94 42 07 	call	0xe84	; 0xe84 <LCD_Write_COM_DATA>
    18b4:	82 e2       	ldi	r24, 0x22	; 34
    18b6:	0e 94 2e 07 	call	0xe5c	; 0xe5c <LCD_Write_COM>
    18ba:	85 b3       	in	r24, 0x15	; 21
    18bc:	80 64       	ori	r24, 0x40	; 64
    18be:	85 bb       	out	0x15, r24	; 21
    18c0:	2a 81       	ldd	r18, Y+2	; 0x02
    18c2:	30 e0       	ldi	r19, 0x00	; 0
    18c4:	32 2f       	mov	r19, r18
    18c6:	22 27       	eor	r18, r18
    18c8:	8b 81       	ldd	r24, Y+3	; 0x03
    18ca:	28 2b       	or	r18, r24
    18cc:	48 81       	ld	r20, Y
    18ce:	50 e0       	ldi	r21, 0x00	; 0
    18d0:	54 2f       	mov	r21, r20
    18d2:	44 27       	eor	r20, r20
    18d4:	89 81       	ldd	r24, Y+1	; 0x01
    18d6:	48 2b       	or	r20, r24
    18d8:	6d 85       	ldd	r22, Y+13	; 0x0d
    18da:	7e 85       	ldd	r23, Y+14	; 0x0e
    18dc:	6c 0d       	add	r22, r12
    18de:	7d 1d       	adc	r23, r13
    18e0:	88 89       	ldd	r24, Y+16	; 0x10
    18e2:	9f 85       	ldd	r25, Y+15	; 0x0f
    18e4:	89 9f       	mul	r24, r25
    18e6:	c0 01       	movw	r24, r0
    18e8:	11 24       	eor	r1, r1
    18ea:	99 23       	and	r25, r25
    18ec:	0c f4       	brge	.+2      	; 0x18f0 <_ZN4UTFT9printCharEhii+0xe6>
    18ee:	07 96       	adiw	r24, 0x07	; 7
    18f0:	95 95       	asr	r25
    18f2:	87 95       	ror	r24
    18f4:	95 95       	asr	r25
    18f6:	87 95       	ror	r24
    18f8:	95 95       	asr	r25
    18fa:	87 95       	ror	r24
    18fc:	0e 94 56 06 	call	0xcac	; 0xcac <fastbitmap_1bit>
    1900:	6f c0       	rjmp	.+222    	; 0x19e0 <_ZN4UTFT9printCharEhii+0x1d6>
    1902:	29 89       	ldd	r18, Y+17	; 0x11
    1904:	86 2f       	mov	r24, r22
    1906:	90 e0       	ldi	r25, 0x00	; 0
    1908:	82 1b       	sub	r24, r18
    190a:	91 09       	sbc	r25, r1
    190c:	4f 85       	ldd	r20, Y+15	; 0x0f
    190e:	54 2f       	mov	r21, r20
    1910:	56 95       	lsr	r21
    1912:	56 95       	lsr	r21
    1914:	56 95       	lsr	r21
    1916:	28 89       	ldd	r18, Y+16	; 0x10
    1918:	30 e0       	ldi	r19, 0x00	; 0
    191a:	52 9f       	mul	r21, r18
    191c:	b0 01       	movw	r22, r0
    191e:	53 9f       	mul	r21, r19
    1920:	70 0d       	add	r23, r0
    1922:	11 24       	eor	r1, r1
    1924:	86 9f       	mul	r24, r22
    1926:	60 01       	movw	r12, r0
    1928:	87 9f       	mul	r24, r23
    192a:	d0 0c       	add	r13, r0
    192c:	96 9f       	mul	r25, r22
    192e:	d0 0c       	add	r13, r0
    1930:	11 24       	eor	r1, r1
    1932:	84 e0       	ldi	r24, 0x04	; 4
    1934:	c8 0e       	add	r12, r24
    1936:	d1 1c       	adc	r13, r1
    1938:	c7 01       	movw	r24, r14
    193a:	84 0f       	add	r24, r20
    193c:	91 1d       	adc	r25, r1
    193e:	01 97       	sbiw	r24, 0x01	; 1
    1940:	20 0f       	add	r18, r16
    1942:	31 1f       	adc	r19, r17
    1944:	49 85       	ldd	r20, Y+9	; 0x09
    1946:	5a 85       	ldd	r21, Y+10	; 0x0a
    1948:	6b 85       	ldd	r22, Y+11	; 0x0b
    194a:	7c 85       	ldd	r23, Y+12	; 0x0c
    194c:	5a 01       	movw	r10, r20
    194e:	ae 18       	sub	r10, r14
    1950:	bf 08       	sbc	r11, r15
    1952:	7a 01       	movw	r14, r20
    1954:	e8 1a       	sub	r14, r24
    1956:	f9 0a       	sbc	r15, r25
    1958:	60 e0       	ldi	r22, 0x00	; 0
    195a:	70 e0       	ldi	r23, 0x00	; 0
    195c:	7f ef       	ldi	r23, 0xFF	; 255
    195e:	72 0f       	add	r23, r18
    1960:	60 0f       	add	r22, r16
    1962:	71 1f       	adc	r23, r17
    1964:	84 e4       	ldi	r24, 0x44	; 68
    1966:	0e 94 42 07 	call	0xe84	; 0xe84 <LCD_Write_COM_DATA>
    196a:	b7 01       	movw	r22, r14
    196c:	85 e4       	ldi	r24, 0x45	; 69
    196e:	0e 94 42 07 	call	0xe84	; 0xe84 <LCD_Write_COM_DATA>
    1972:	b5 01       	movw	r22, r10
    1974:	86 e4       	ldi	r24, 0x46	; 70
    1976:	0e 94 42 07 	call	0xe84	; 0xe84 <LCD_Write_COM_DATA>
    197a:	b8 01       	movw	r22, r16
    197c:	8e e4       	ldi	r24, 0x4E	; 78
    197e:	0e 94 42 07 	call	0xe84	; 0xe84 <LCD_Write_COM_DATA>
    1982:	b5 01       	movw	r22, r10
    1984:	8f e4       	ldi	r24, 0x4F	; 79
    1986:	0e 94 42 07 	call	0xe84	; 0xe84 <LCD_Write_COM_DATA>
    198a:	68 e5       	ldi	r22, 0x58	; 88
    198c:	70 e6       	ldi	r23, 0x60	; 96
    198e:	81 e1       	ldi	r24, 0x11	; 17
    1990:	0e 94 42 07 	call	0xe84	; 0xe84 <LCD_Write_COM_DATA>
    1994:	82 e2       	ldi	r24, 0x22	; 34
    1996:	0e 94 2e 07 	call	0xe5c	; 0xe5c <LCD_Write_COM>
    199a:	85 b3       	in	r24, 0x15	; 21
    199c:	80 64       	ori	r24, 0x40	; 64
    199e:	85 bb       	out	0x15, r24	; 21
    19a0:	2a 81       	ldd	r18, Y+2	; 0x02
    19a2:	30 e0       	ldi	r19, 0x00	; 0
    19a4:	32 2f       	mov	r19, r18
    19a6:	22 27       	eor	r18, r18
    19a8:	8b 81       	ldd	r24, Y+3	; 0x03
    19aa:	28 2b       	or	r18, r24
    19ac:	48 81       	ld	r20, Y
    19ae:	50 e0       	ldi	r21, 0x00	; 0
    19b0:	54 2f       	mov	r21, r20
    19b2:	44 27       	eor	r20, r20
    19b4:	89 81       	ldd	r24, Y+1	; 0x01
    19b6:	48 2b       	or	r20, r24
    19b8:	6d 85       	ldd	r22, Y+13	; 0x0d
    19ba:	7e 85       	ldd	r23, Y+14	; 0x0e
    19bc:	6c 0d       	add	r22, r12
    19be:	7d 1d       	adc	r23, r13
    19c0:	88 89       	ldd	r24, Y+16	; 0x10
    19c2:	9f 85       	ldd	r25, Y+15	; 0x0f
    19c4:	89 9f       	mul	r24, r25
    19c6:	c0 01       	movw	r24, r0
    19c8:	11 24       	eor	r1, r1
    19ca:	99 23       	and	r25, r25
    19cc:	0c f4       	brge	.+2      	; 0x19d0 <_ZN4UTFT9printCharEhii+0x1c6>
    19ce:	07 96       	adiw	r24, 0x07	; 7
    19d0:	95 95       	asr	r25
    19d2:	87 95       	ror	r24
    19d4:	95 95       	asr	r25
    19d6:	87 95       	ror	r24
    19d8:	95 95       	asr	r25
    19da:	87 95       	ror	r24
    19dc:	0e 94 56 06 	call	0xcac	; 0xcac <fastbitmap_1bit>
    19e0:	85 b3       	in	r24, 0x15	; 21
    19e2:	82 60       	ori	r24, 0x02	; 2
    19e4:	85 bb       	out	0x15, r24	; 21
    19e6:	df 91       	pop	r29
    19e8:	cf 91       	pop	r28
    19ea:	1f 91       	pop	r17
    19ec:	0f 91       	pop	r16
    19ee:	ff 90       	pop	r15
    19f0:	ef 90       	pop	r14
    19f2:	df 90       	pop	r13
    19f4:	cf 90       	pop	r12
    19f6:	bf 90       	pop	r11
    19f8:	af 90       	pop	r10
    19fa:	08 95       	ret

000019fc <_ZN4UTFT10rotateCharEhiiii>:
    19fc:	2f 92       	push	r2
    19fe:	3f 92       	push	r3
    1a00:	4f 92       	push	r4
    1a02:	5f 92       	push	r5
    1a04:	6f 92       	push	r6
    1a06:	7f 92       	push	r7
    1a08:	8f 92       	push	r8
    1a0a:	9f 92       	push	r9
    1a0c:	af 92       	push	r10
    1a0e:	bf 92       	push	r11
    1a10:	cf 92       	push	r12
    1a12:	df 92       	push	r13
    1a14:	ef 92       	push	r14
    1a16:	ff 92       	push	r15
    1a18:	0f 93       	push	r16
    1a1a:	1f 93       	push	r17
    1a1c:	cf 93       	push	r28
    1a1e:	df 93       	push	r29
    1a20:	cd b7       	in	r28, 0x3d	; 61
    1a22:	de b7       	in	r29, 0x3e	; 62
    1a24:	6b 97       	sbiw	r28, 0x1b	; 27
    1a26:	0f b6       	in	r0, 0x3f	; 63
    1a28:	f8 94       	cli
    1a2a:	de bf       	out	0x3e, r29	; 62
    1a2c:	0f be       	out	0x3f, r0	; 63
    1a2e:	cd bf       	out	0x3d, r28	; 61
    1a30:	5c 01       	movw	r10, r24
    1a32:	69 83       	std	Y+1, r22	; 0x01
    1a34:	3a 01       	movw	r6, r20
    1a36:	49 01       	movw	r8, r18
    1a38:	1f 8b       	std	Y+23, r17	; 0x17
    1a3a:	0e 8b       	std	Y+22, r16	; 0x16
    1a3c:	b7 01       	movw	r22, r14
    1a3e:	ff 0c       	add	r15, r15
    1a40:	88 0b       	sbc	r24, r24
    1a42:	99 0b       	sbc	r25, r25
    1a44:	0e 94 0d 10 	call	0x201a	; 0x201a <__floatsisf>
    1a48:	29 e2       	ldi	r18, 0x29	; 41
    1a4a:	3c e5       	ldi	r19, 0x5C	; 92
    1a4c:	4f e8       	ldi	r20, 0x8F	; 143
    1a4e:	5c e3       	ldi	r21, 0x3C	; 60
    1a50:	0e 94 d8 10 	call	0x21b0	; 0x21b0 <__mulsf3>
    1a54:	69 8b       	std	Y+17, r22	; 0x11
    1a56:	7a 8b       	std	Y+18, r23	; 0x12
    1a58:	8b 8b       	std	Y+19, r24	; 0x13
    1a5a:	9c 8b       	std	Y+20, r25	; 0x14
    1a5c:	85 b3       	in	r24, 0x15	; 21
    1a5e:	8d 7f       	andi	r24, 0xFD	; 253
    1a60:	85 bb       	out	0x15, r24	; 21
    1a62:	d5 01       	movw	r26, r10
    1a64:	51 96       	adiw	r26, 0x11	; 17
    1a66:	8c 91       	ld	r24, X
    1a68:	b9 81       	ldd	r27, Y+1	; 0x01
    1a6a:	2b 2f       	mov	r18, r27
    1a6c:	30 e0       	ldi	r19, 0x00	; 0
    1a6e:	28 1b       	sub	r18, r24
    1a70:	31 09       	sbc	r19, r1
    1a72:	f5 01       	movw	r30, r10
    1a74:	87 85       	ldd	r24, Z+15	; 0x0f
    1a76:	86 95       	lsr	r24
    1a78:	86 95       	lsr	r24
    1a7a:	86 95       	lsr	r24
    1a7c:	90 89       	ldd	r25, Z+16	; 0x10
    1a7e:	89 9f       	mul	r24, r25
    1a80:	c0 01       	movw	r24, r0
    1a82:	11 24       	eor	r1, r1
    1a84:	28 9f       	mul	r18, r24
    1a86:	a0 01       	movw	r20, r0
    1a88:	29 9f       	mul	r18, r25
    1a8a:	50 0d       	add	r21, r0
    1a8c:	38 9f       	mul	r19, r24
    1a8e:	50 0d       	add	r21, r0
    1a90:	11 24       	eor	r1, r1
    1a92:	9a 01       	movw	r18, r20
    1a94:	2c 5f       	subi	r18, 0xFC	; 252
    1a96:	3f 4f       	sbci	r19, 0xFF	; 255
    1a98:	39 8f       	std	Y+25, r19	; 0x19
    1a9a:	28 8f       	std	Y+24, r18	; 0x18
    1a9c:	1d 8a       	std	Y+21, r1	; 0x15
    1a9e:	d5 01       	movw	r26, r10
    1aa0:	50 96       	adiw	r26, 0x10	; 16
    1aa2:	8c 91       	ld	r24, X
    1aa4:	bd 89       	ldd	r27, Y+21	; 0x15
    1aa6:	b8 17       	cp	r27, r24
    1aa8:	08 f0       	brcs	.+2      	; 0x1aac <_ZN4UTFT10rotateCharEhiiii+0xb0>
    1aaa:	fb c0       	rjmp	.+502    	; 0x1ca2 <_ZN4UTFT10rotateCharEhiiii+0x2a6>
    1aac:	41 2c       	mov	r4, r1
    1aae:	51 2c       	mov	r5, r1
    1ab0:	f5 01       	movw	r30, r10
    1ab2:	87 85       	ldd	r24, Z+15	; 0x0f
    1ab4:	86 95       	lsr	r24
    1ab6:	86 95       	lsr	r24
    1ab8:	86 95       	lsr	r24
    1aba:	28 2f       	mov	r18, r24
    1abc:	30 e0       	ldi	r19, 0x00	; 0
    1abe:	42 16       	cp	r4, r18
    1ac0:	53 06       	cpc	r5, r19
    1ac2:	0c f0       	brlt	.+2      	; 0x1ac6 <_ZN4UTFT10rotateCharEhiiii+0xca>
    1ac4:	e4 c0       	rjmp	.+456    	; 0x1c8e <_ZN4UTFT10rotateCharEhiiii+0x292>
    1ac6:	05 84       	ldd	r0, Z+13	; 0x0d
    1ac8:	f6 85       	ldd	r31, Z+14	; 0x0e
    1aca:	e0 2d       	mov	r30, r0
    1acc:	88 8d       	ldd	r24, Y+24	; 0x18
    1ace:	99 8d       	ldd	r25, Y+25	; 0x19
    1ad0:	84 0d       	add	r24, r4
    1ad2:	95 1d       	adc	r25, r5
    1ad4:	e8 0f       	add	r30, r24
    1ad6:	f9 1f       	adc	r31, r25
    1ad8:	24 90       	lpm	r2, Z
    1ada:	31 2c       	mov	r3, r1
    1adc:	3a 8e       	std	Y+26, r3	; 0x1a
    1ade:	2b 8e       	std	Y+27, r2	; 0x1b
    1ae0:	fa 8d       	ldd	r31, Y+26	; 0x1a
    1ae2:	f8 30       	cpi	r31, 0x08	; 8
    1ae4:	08 f0       	brcs	.+2      	; 0x1ae8 <_ZN4UTFT10rotateCharEhiiii+0xec>
    1ae6:	cf c0       	rjmp	.+414    	; 0x1c86 <_ZN4UTFT10rotateCharEhiiii+0x28a>
    1ae8:	2f 2e       	mov	r2, r31
    1aea:	31 2c       	mov	r3, r1
    1aec:	b2 01       	movw	r22, r4
    1aee:	66 0f       	add	r22, r22
    1af0:	77 1f       	adc	r23, r23
    1af2:	66 0f       	add	r22, r22
    1af4:	77 1f       	adc	r23, r23
    1af6:	66 0f       	add	r22, r22
    1af8:	77 1f       	adc	r23, r23
    1afa:	62 0d       	add	r22, r2
    1afc:	73 1d       	adc	r23, r3
    1afe:	d5 01       	movw	r26, r10
    1b00:	1f 96       	adiw	r26, 0x0f	; 15
    1b02:	2c 91       	ld	r18, X
    1b04:	ee 89       	ldd	r30, Y+22	; 0x16
    1b06:	ff 89       	ldd	r31, Y+23	; 0x17
    1b08:	2e 9f       	mul	r18, r30
    1b0a:	c0 01       	movw	r24, r0
    1b0c:	2f 9f       	mul	r18, r31
    1b0e:	90 0d       	add	r25, r0
    1b10:	11 24       	eor	r1, r1
    1b12:	68 0f       	add	r22, r24
    1b14:	79 1f       	adc	r23, r25
    1b16:	07 2e       	mov	r0, r23
    1b18:	00 0c       	add	r0, r0
    1b1a:	88 0b       	sbc	r24, r24
    1b1c:	99 0b       	sbc	r25, r25
    1b1e:	0e 94 0d 10 	call	0x201a	; 0x201a <__floatsisf>
    1b22:	69 83       	std	Y+1, r22	; 0x01
    1b24:	7a 83       	std	Y+2, r23	; 0x02
    1b26:	8b 83       	std	Y+3, r24	; 0x03
    1b28:	9c 83       	std	Y+4, r25	; 0x04
    1b2a:	69 89       	ldd	r22, Y+17	; 0x11
    1b2c:	7a 89       	ldd	r23, Y+18	; 0x12
    1b2e:	8b 89       	ldd	r24, Y+19	; 0x13
    1b30:	9c 89       	ldd	r25, Y+20	; 0x14
    1b32:	0e 94 d0 0f 	call	0x1fa0	; 0x1fa0 <cos>
    1b36:	6d 83       	std	Y+5, r22	; 0x05
    1b38:	7e 83       	std	Y+6, r23	; 0x06
    1b3a:	8f 83       	std	Y+7, r24	; 0x07
    1b3c:	98 87       	std	Y+8, r25	; 0x08
    1b3e:	9b 01       	movw	r18, r22
    1b40:	ac 01       	movw	r20, r24
    1b42:	69 81       	ldd	r22, Y+1	; 0x01
    1b44:	7a 81       	ldd	r23, Y+2	; 0x02
    1b46:	8b 81       	ldd	r24, Y+3	; 0x03
    1b48:	9c 81       	ldd	r25, Y+4	; 0x04
    1b4a:	0e 94 d8 10 	call	0x21b0	; 0x21b0 <__mulsf3>
    1b4e:	6b 01       	movw	r12, r22
    1b50:	7c 01       	movw	r14, r24
    1b52:	fd 89       	ldd	r31, Y+21	; 0x15
    1b54:	6f 2f       	mov	r22, r31
    1b56:	70 e0       	ldi	r23, 0x00	; 0
    1b58:	80 e0       	ldi	r24, 0x00	; 0
    1b5a:	90 e0       	ldi	r25, 0x00	; 0
    1b5c:	0e 94 0d 10 	call	0x201a	; 0x201a <__floatsisf>
    1b60:	69 87       	std	Y+9, r22	; 0x09
    1b62:	7a 87       	std	Y+10, r23	; 0x0a
    1b64:	8b 87       	std	Y+11, r24	; 0x0b
    1b66:	9c 87       	std	Y+12, r25	; 0x0c
    1b68:	69 89       	ldd	r22, Y+17	; 0x11
    1b6a:	7a 89       	ldd	r23, Y+18	; 0x12
    1b6c:	8b 89       	ldd	r24, Y+19	; 0x13
    1b6e:	9c 89       	ldd	r25, Y+20	; 0x14
    1b70:	0e 94 45 11 	call	0x228a	; 0x228a <sin>
    1b74:	6d 87       	std	Y+13, r22	; 0x0d
    1b76:	7e 87       	std	Y+14, r23	; 0x0e
    1b78:	8f 87       	std	Y+15, r24	; 0x0f
    1b7a:	98 8b       	std	Y+16, r25	; 0x10
    1b7c:	9b 01       	movw	r18, r22
    1b7e:	ac 01       	movw	r20, r24
    1b80:	69 85       	ldd	r22, Y+9	; 0x09
    1b82:	7a 85       	ldd	r23, Y+10	; 0x0a
    1b84:	8b 85       	ldd	r24, Y+11	; 0x0b
    1b86:	9c 85       	ldd	r25, Y+12	; 0x0c
    1b88:	0e 94 d8 10 	call	0x21b0	; 0x21b0 <__mulsf3>
    1b8c:	9b 01       	movw	r18, r22
    1b8e:	ac 01       	movw	r20, r24
    1b90:	c7 01       	movw	r24, r14
    1b92:	b6 01       	movw	r22, r12
    1b94:	0e 94 63 0f 	call	0x1ec6	; 0x1ec6 <__subsf3>
    1b98:	6b 01       	movw	r12, r22
    1b9a:	7c 01       	movw	r14, r24
    1b9c:	b3 01       	movw	r22, r6
    1b9e:	07 2c       	mov	r0, r7
    1ba0:	00 0c       	add	r0, r0
    1ba2:	88 0b       	sbc	r24, r24
    1ba4:	99 0b       	sbc	r25, r25
    1ba6:	0e 94 0d 10 	call	0x201a	; 0x201a <__floatsisf>
    1baa:	a7 01       	movw	r20, r14
    1bac:	96 01       	movw	r18, r12
    1bae:	0e 94 64 0f 	call	0x1ec8	; 0x1ec8 <__addsf3>
    1bb2:	0e 94 d5 0f 	call	0x1faa	; 0x1faa <__fixsfsi>
    1bb6:	6b 01       	movw	r12, r22
    1bb8:	7c 01       	movw	r14, r24
    1bba:	29 85       	ldd	r18, Y+9	; 0x09
    1bbc:	3a 85       	ldd	r19, Y+10	; 0x0a
    1bbe:	4b 85       	ldd	r20, Y+11	; 0x0b
    1bc0:	5c 85       	ldd	r21, Y+12	; 0x0c
    1bc2:	6d 81       	ldd	r22, Y+5	; 0x05
    1bc4:	7e 81       	ldd	r23, Y+6	; 0x06
    1bc6:	8f 81       	ldd	r24, Y+7	; 0x07
    1bc8:	98 85       	ldd	r25, Y+8	; 0x08
    1bca:	0e 94 d8 10 	call	0x21b0	; 0x21b0 <__mulsf3>
    1bce:	6d 83       	std	Y+5, r22	; 0x05
    1bd0:	7e 83       	std	Y+6, r23	; 0x06
    1bd2:	8f 83       	std	Y+7, r24	; 0x07
    1bd4:	98 87       	std	Y+8, r25	; 0x08
    1bd6:	2d 85       	ldd	r18, Y+13	; 0x0d
    1bd8:	3e 85       	ldd	r19, Y+14	; 0x0e
    1bda:	4f 85       	ldd	r20, Y+15	; 0x0f
    1bdc:	58 89       	ldd	r21, Y+16	; 0x10
    1bde:	69 81       	ldd	r22, Y+1	; 0x01
    1be0:	7a 81       	ldd	r23, Y+2	; 0x02
    1be2:	8b 81       	ldd	r24, Y+3	; 0x03
    1be4:	9c 81       	ldd	r25, Y+4	; 0x04
    1be6:	0e 94 d8 10 	call	0x21b0	; 0x21b0 <__mulsf3>
    1bea:	9b 01       	movw	r18, r22
    1bec:	ac 01       	movw	r20, r24
    1bee:	6d 81       	ldd	r22, Y+5	; 0x05
    1bf0:	7e 81       	ldd	r23, Y+6	; 0x06
    1bf2:	8f 81       	ldd	r24, Y+7	; 0x07
    1bf4:	98 85       	ldd	r25, Y+8	; 0x08
    1bf6:	0e 94 64 0f 	call	0x1ec8	; 0x1ec8 <__addsf3>
    1bfa:	69 83       	std	Y+1, r22	; 0x01
    1bfc:	7a 83       	std	Y+2, r23	; 0x02
    1bfe:	8b 83       	std	Y+3, r24	; 0x03
    1c00:	9c 83       	std	Y+4, r25	; 0x04
    1c02:	b4 01       	movw	r22, r8
    1c04:	09 2c       	mov	r0, r9
    1c06:	00 0c       	add	r0, r0
    1c08:	88 0b       	sbc	r24, r24
    1c0a:	99 0b       	sbc	r25, r25
    1c0c:	0e 94 0d 10 	call	0x201a	; 0x201a <__floatsisf>
    1c10:	29 81       	ldd	r18, Y+1	; 0x01
    1c12:	3a 81       	ldd	r19, Y+2	; 0x02
    1c14:	4b 81       	ldd	r20, Y+3	; 0x03
    1c16:	5c 81       	ldd	r21, Y+4	; 0x04
    1c18:	0e 94 64 0f 	call	0x1ec8	; 0x1ec8 <__addsf3>
    1c1c:	0e 94 d5 0f 	call	0x1faa	; 0x1faa <__fixsfsi>
    1c20:	8b 01       	movw	r16, r22
    1c22:	0f 5f       	subi	r16, 0xFF	; 255
    1c24:	1f 4f       	sbci	r17, 0xFF	; 255
    1c26:	96 01       	movw	r18, r12
    1c28:	2f 5f       	subi	r18, 0xFF	; 255
    1c2a:	3f 4f       	sbci	r19, 0xFF	; 255
    1c2c:	ab 01       	movw	r20, r22
    1c2e:	b6 01       	movw	r22, r12
    1c30:	c5 01       	movw	r24, r10
    1c32:	0e 94 32 0a 	call	0x1464	; 0x1464 <_ZN4UTFT5setXYEjjjj>
    1c36:	27 e0       	ldi	r18, 0x07	; 7
    1c38:	30 e0       	ldi	r19, 0x00	; 0
    1c3a:	22 19       	sub	r18, r2
    1c3c:	33 09       	sbc	r19, r3
    1c3e:	4b 8d       	ldd	r20, Y+27	; 0x1b
    1c40:	84 2f       	mov	r24, r20
    1c42:	90 e0       	ldi	r25, 0x00	; 0
    1c44:	02 c0       	rjmp	.+4      	; 0x1c4a <_ZN4UTFT10rotateCharEhiiii+0x24e>
    1c46:	95 95       	asr	r25
    1c48:	87 95       	ror	r24
    1c4a:	2a 95       	dec	r18
    1c4c:	e2 f7       	brpl	.-8      	; 0x1c46 <_ZN4UTFT10rotateCharEhiiii+0x24a>
    1c4e:	80 ff       	sbrs	r24, 0
    1c50:	0c c0       	rjmp	.+24     	; 0x1c6a <_ZN4UTFT10rotateCharEhiiii+0x26e>
    1c52:	d5 01       	movw	r26, r10
    1c54:	6c 91       	ld	r22, X
    1c56:	70 e0       	ldi	r23, 0x00	; 0
    1c58:	76 2f       	mov	r23, r22
    1c5a:	66 27       	eor	r22, r22
    1c5c:	11 96       	adiw	r26, 0x01	; 1
    1c5e:	8c 91       	ld	r24, X
    1c60:	68 2b       	or	r22, r24
    1c62:	c5 01       	movw	r24, r10
    1c64:	0e 94 6a 0b 	call	0x16d4	; 0x16d4 <_ZN4UTFT8setPixelEj>
    1c68:	0a c0       	rjmp	.+20     	; 0x1c7e <_ZN4UTFT10rotateCharEhiiii+0x282>
    1c6a:	f5 01       	movw	r30, r10
    1c6c:	62 81       	ldd	r22, Z+2	; 0x02
    1c6e:	70 e0       	ldi	r23, 0x00	; 0
    1c70:	76 2f       	mov	r23, r22
    1c72:	66 27       	eor	r22, r22
    1c74:	83 81       	ldd	r24, Z+3	; 0x03
    1c76:	68 2b       	or	r22, r24
    1c78:	c5 01       	movw	r24, r10
    1c7a:	0e 94 6a 0b 	call	0x16d4	; 0x16d4 <_ZN4UTFT8setPixelEj>
    1c7e:	fa 8d       	ldd	r31, Y+26	; 0x1a
    1c80:	ff 5f       	subi	r31, 0xFF	; 255
    1c82:	fa 8f       	std	Y+26, r31	; 0x1a
    1c84:	2d cf       	rjmp	.-422    	; 0x1ae0 <_ZN4UTFT10rotateCharEhiiii+0xe4>
    1c86:	2f ef       	ldi	r18, 0xFF	; 255
    1c88:	42 1a       	sub	r4, r18
    1c8a:	52 0a       	sbc	r5, r18
    1c8c:	11 cf       	rjmp	.-478    	; 0x1ab0 <_ZN4UTFT10rotateCharEhiiii+0xb4>
    1c8e:	48 8d       	ldd	r20, Y+24	; 0x18
    1c90:	59 8d       	ldd	r21, Y+25	; 0x19
    1c92:	48 0f       	add	r20, r24
    1c94:	51 1d       	adc	r21, r1
    1c96:	59 8f       	std	Y+25, r21	; 0x19
    1c98:	48 8f       	std	Y+24, r20	; 0x18
    1c9a:	5d 89       	ldd	r21, Y+21	; 0x15
    1c9c:	5f 5f       	subi	r21, 0xFF	; 255
    1c9e:	5d 8b       	std	Y+21, r21	; 0x15
    1ca0:	fe ce       	rjmp	.-516    	; 0x1a9e <_ZN4UTFT10rotateCharEhiiii+0xa2>
    1ca2:	85 b3       	in	r24, 0x15	; 21
    1ca4:	82 60       	ori	r24, 0x02	; 2
    1ca6:	85 bb       	out	0x15, r24	; 21
    1ca8:	6b 96       	adiw	r28, 0x1b	; 27
    1caa:	0f b6       	in	r0, 0x3f	; 63
    1cac:	f8 94       	cli
    1cae:	de bf       	out	0x3e, r29	; 62
    1cb0:	0f be       	out	0x3f, r0	; 63
    1cb2:	cd bf       	out	0x3d, r28	; 61
    1cb4:	df 91       	pop	r29
    1cb6:	cf 91       	pop	r28
    1cb8:	1f 91       	pop	r17
    1cba:	0f 91       	pop	r16
    1cbc:	ff 90       	pop	r15
    1cbe:	ef 90       	pop	r14
    1cc0:	df 90       	pop	r13
    1cc2:	cf 90       	pop	r12
    1cc4:	bf 90       	pop	r11
    1cc6:	af 90       	pop	r10
    1cc8:	9f 90       	pop	r9
    1cca:	8f 90       	pop	r8
    1ccc:	7f 90       	pop	r7
    1cce:	6f 90       	pop	r6
    1cd0:	5f 90       	pop	r5
    1cd2:	4f 90       	pop	r4
    1cd4:	3f 90       	pop	r3
    1cd6:	2f 90       	pop	r2
    1cd8:	08 95       	ret

00001cda <_ZN4UTFT5printEPKciii>:
    1cda:	2f 92       	push	r2
    1cdc:	3f 92       	push	r3
    1cde:	4f 92       	push	r4
    1ce0:	5f 92       	push	r5
    1ce2:	6f 92       	push	r6
    1ce4:	7f 92       	push	r7
    1ce6:	8f 92       	push	r8
    1ce8:	9f 92       	push	r9
    1cea:	af 92       	push	r10
    1cec:	bf 92       	push	r11
    1cee:	cf 92       	push	r12
    1cf0:	df 92       	push	r13
    1cf2:	ef 92       	push	r14
    1cf4:	ff 92       	push	r15
    1cf6:	0f 93       	push	r16
    1cf8:	1f 93       	push	r17
    1cfa:	cf 93       	push	r28
    1cfc:	df 93       	push	r29
    1cfe:	ec 01       	movw	r28, r24
    1d00:	fb 01       	movw	r30, r22
    1d02:	5a 01       	movw	r10, r20
    1d04:	29 01       	movw	r4, r18
    1d06:	68 01       	movw	r12, r16
    1d08:	db 01       	movw	r26, r22
    1d0a:	0d 90       	ld	r0, X+
    1d0c:	00 20       	and	r0, r0
    1d0e:	e9 f7       	brne	.-6      	; 0x1d0a <_ZN4UTFT5printEPKciii+0x30>
    1d10:	11 97       	sbiw	r26, 0x01	; 1
    1d12:	a6 1b       	sub	r26, r22
    1d14:	b7 0b       	sbc	r27, r23
    1d16:	4d 01       	movw	r8, r26
    1d18:	8c 81       	ldd	r24, Y+4	; 0x04
    1d1a:	81 11       	cpse	r24, r1
    1d1c:	3e c0       	rjmp	.+124    	; 0x1d9a <_ZN4UTFT5printEPKciii+0xc0>
    1d1e:	4f 30       	cpi	r20, 0x0F	; 15
    1d20:	57 42       	sbci	r21, 0x27	; 39
    1d22:	81 f4       	brne	.+32     	; 0x1d44 <_ZN4UTFT5printEPKciii+0x6a>
    1d24:	4d 81       	ldd	r20, Y+5	; 0x05
    1d26:	5e 81       	ldd	r21, Y+6	; 0x06
    1d28:	6f 81       	ldd	r22, Y+7	; 0x07
    1d2a:	78 85       	ldd	r23, Y+8	; 0x08
    1d2c:	2f 85       	ldd	r18, Y+15	; 0x0f
    1d2e:	2a 9f       	mul	r18, r26
    1d30:	c0 01       	movw	r24, r0
    1d32:	2b 9f       	mul	r18, r27
    1d34:	90 0d       	add	r25, r0
    1d36:	11 24       	eor	r1, r1
    1d38:	48 1b       	sub	r20, r24
    1d3a:	59 0b       	sbc	r21, r25
    1d3c:	5a 01       	movw	r10, r20
    1d3e:	1f ef       	ldi	r17, 0xFF	; 255
    1d40:	a1 1a       	sub	r10, r17
    1d42:	b1 0a       	sbc	r11, r17
    1d44:	2e e0       	ldi	r18, 0x0E	; 14
    1d46:	a2 16       	cp	r10, r18
    1d48:	27 e2       	ldi	r18, 0x27	; 39
    1d4a:	b2 06       	cpc	r11, r18
    1d4c:	09 f0       	breq	.+2      	; 0x1d50 <_ZN4UTFT5printEPKciii+0x76>
    1d4e:	61 c0       	rjmp	.+194    	; 0x1e12 <_ZN4UTFT5printEPKciii+0x138>
    1d50:	4d 81       	ldd	r20, Y+5	; 0x05
    1d52:	5e 81       	ldd	r21, Y+6	; 0x06
    1d54:	6f 81       	ldd	r22, Y+7	; 0x07
    1d56:	78 85       	ldd	r23, Y+8	; 0x08
    1d58:	4f 5f       	subi	r20, 0xFF	; 255
    1d5a:	5f 4f       	sbci	r21, 0xFF	; 255
    1d5c:	6f 4f       	sbci	r22, 0xFF	; 255
    1d5e:	7f 4f       	sbci	r23, 0xFF	; 255
    1d60:	2f 85       	ldd	r18, Y+15	; 0x0f
    1d62:	2a 9f       	mul	r18, r26
    1d64:	c0 01       	movw	r24, r0
    1d66:	2b 9f       	mul	r18, r27
    1d68:	90 0d       	add	r25, r0
    1d6a:	11 24       	eor	r1, r1
    1d6c:	09 2e       	mov	r0, r25
    1d6e:	00 0c       	add	r0, r0
    1d70:	aa 0b       	sbc	r26, r26
    1d72:	bb 0b       	sbc	r27, r27
    1d74:	8a 01       	movw	r16, r20
    1d76:	9b 01       	movw	r18, r22
    1d78:	08 1b       	sub	r16, r24
    1d7a:	19 0b       	sbc	r17, r25
    1d7c:	2a 0b       	sbc	r18, r26
    1d7e:	3b 0b       	sbc	r19, r27
    1d80:	b9 01       	movw	r22, r18
    1d82:	a8 01       	movw	r20, r16
    1d84:	22 f4       	brpl	.+8      	; 0x1d8e <_ZN4UTFT5printEPKciii+0xb4>
    1d86:	4f 5f       	subi	r20, 0xFF	; 255
    1d88:	5f 4f       	sbci	r21, 0xFF	; 255
    1d8a:	6f 4f       	sbci	r22, 0xFF	; 255
    1d8c:	7f 4f       	sbci	r23, 0xFF	; 255
    1d8e:	75 95       	asr	r23
    1d90:	67 95       	ror	r22
    1d92:	57 95       	ror	r21
    1d94:	47 95       	ror	r20
    1d96:	5a 01       	movw	r10, r20
    1d98:	3c c0       	rjmp	.+120    	; 0x1e12 <_ZN4UTFT5printEPKciii+0x138>
    1d9a:	4f 30       	cpi	r20, 0x0F	; 15
    1d9c:	57 42       	sbci	r21, 0x27	; 39
    1d9e:	81 f4       	brne	.+32     	; 0x1dc0 <_ZN4UTFT5printEPKciii+0xe6>
    1da0:	49 85       	ldd	r20, Y+9	; 0x09
    1da2:	5a 85       	ldd	r21, Y+10	; 0x0a
    1da4:	6b 85       	ldd	r22, Y+11	; 0x0b
    1da6:	7c 85       	ldd	r23, Y+12	; 0x0c
    1da8:	2f 85       	ldd	r18, Y+15	; 0x0f
    1daa:	2a 9f       	mul	r18, r26
    1dac:	c0 01       	movw	r24, r0
    1dae:	2b 9f       	mul	r18, r27
    1db0:	90 0d       	add	r25, r0
    1db2:	11 24       	eor	r1, r1
    1db4:	48 1b       	sub	r20, r24
    1db6:	59 0b       	sbc	r21, r25
    1db8:	5a 01       	movw	r10, r20
    1dba:	2f ef       	ldi	r18, 0xFF	; 255
    1dbc:	a2 1a       	sub	r10, r18
    1dbe:	b2 0a       	sbc	r11, r18
    1dc0:	3e e0       	ldi	r19, 0x0E	; 14
    1dc2:	a3 16       	cp	r10, r19
    1dc4:	37 e2       	ldi	r19, 0x27	; 39
    1dc6:	b3 06       	cpc	r11, r19
    1dc8:	21 f5       	brne	.+72     	; 0x1e12 <_ZN4UTFT5printEPKciii+0x138>
    1dca:	49 85       	ldd	r20, Y+9	; 0x09
    1dcc:	5a 85       	ldd	r21, Y+10	; 0x0a
    1dce:	6b 85       	ldd	r22, Y+11	; 0x0b
    1dd0:	7c 85       	ldd	r23, Y+12	; 0x0c
    1dd2:	4f 5f       	subi	r20, 0xFF	; 255
    1dd4:	5f 4f       	sbci	r21, 0xFF	; 255
    1dd6:	6f 4f       	sbci	r22, 0xFF	; 255
    1dd8:	7f 4f       	sbci	r23, 0xFF	; 255
    1dda:	2f 85       	ldd	r18, Y+15	; 0x0f
    1ddc:	2a 9f       	mul	r18, r26
    1dde:	c0 01       	movw	r24, r0
    1de0:	2b 9f       	mul	r18, r27
    1de2:	90 0d       	add	r25, r0
    1de4:	11 24       	eor	r1, r1
    1de6:	09 2e       	mov	r0, r25
    1de8:	00 0c       	add	r0, r0
    1dea:	aa 0b       	sbc	r26, r26
    1dec:	bb 0b       	sbc	r27, r27
    1dee:	8a 01       	movw	r16, r20
    1df0:	9b 01       	movw	r18, r22
    1df2:	08 1b       	sub	r16, r24
    1df4:	19 0b       	sbc	r17, r25
    1df6:	2a 0b       	sbc	r18, r26
    1df8:	3b 0b       	sbc	r19, r27
    1dfa:	b9 01       	movw	r22, r18
    1dfc:	a8 01       	movw	r20, r16
    1dfe:	22 f4       	brpl	.+8      	; 0x1e08 <_ZN4UTFT5printEPKciii+0x12e>
    1e00:	4f 5f       	subi	r20, 0xFF	; 255
    1e02:	5f 4f       	sbci	r21, 0xFF	; 255
    1e04:	6f 4f       	sbci	r22, 0xFF	; 255
    1e06:	7f 4f       	sbci	r23, 0xFF	; 255
    1e08:	75 95       	asr	r23
    1e0a:	67 95       	ror	r22
    1e0c:	57 95       	ror	r21
    1e0e:	47 95       	ror	r20
    1e10:	5a 01       	movw	r10, r20
    1e12:	61 2c       	mov	r6, r1
    1e14:	71 2c       	mov	r7, r1
    1e16:	68 14       	cp	r6, r8
    1e18:	79 04       	cpc	r7, r9
    1e1a:	3c f5       	brge	.+78     	; 0x1e6a <_ZN4UTFT5printEPKciii+0x190>
    1e1c:	c1 14       	cp	r12, r1
    1e1e:	d1 04       	cpc	r13, r1
    1e20:	99 f4       	brne	.+38     	; 0x1e48 <_ZN4UTFT5printEPKciii+0x16e>
    1e22:	8f 85       	ldd	r24, Y+15	; 0x0f
    1e24:	86 9d       	mul	r24, r6
    1e26:	a0 01       	movw	r20, r0
    1e28:	87 9d       	mul	r24, r7
    1e2a:	50 0d       	add	r21, r0
    1e2c:	11 24       	eor	r1, r1
    1e2e:	4a 0d       	add	r20, r10
    1e30:	5b 1d       	adc	r21, r11
    1e32:	1f 01       	movw	r2, r30
    1e34:	1f ef       	ldi	r17, 0xFF	; 255
    1e36:	21 1a       	sub	r2, r17
    1e38:	31 0a       	sbc	r3, r17
    1e3a:	60 81       	ld	r22, Z
    1e3c:	92 01       	movw	r18, r4
    1e3e:	ce 01       	movw	r24, r28
    1e40:	0e 94 05 0c 	call	0x180a	; 0x180a <_ZN4UTFT9printCharEhii>
    1e44:	f1 01       	movw	r30, r2
    1e46:	0d c0       	rjmp	.+26     	; 0x1e62 <_ZN4UTFT5printEPKciii+0x188>
    1e48:	1f 01       	movw	r2, r30
    1e4a:	2f ef       	ldi	r18, 0xFF	; 255
    1e4c:	22 1a       	sub	r2, r18
    1e4e:	32 0a       	sbc	r3, r18
    1e50:	60 81       	ld	r22, Z
    1e52:	76 01       	movw	r14, r12
    1e54:	83 01       	movw	r16, r6
    1e56:	92 01       	movw	r18, r4
    1e58:	a5 01       	movw	r20, r10
    1e5a:	ce 01       	movw	r24, r28
    1e5c:	0e 94 fe 0c 	call	0x19fc	; 0x19fc <_ZN4UTFT10rotateCharEhiiii>
    1e60:	f1 01       	movw	r30, r2
    1e62:	3f ef       	ldi	r19, 0xFF	; 255
    1e64:	63 1a       	sub	r6, r19
    1e66:	73 0a       	sbc	r7, r19
    1e68:	d6 cf       	rjmp	.-84     	; 0x1e16 <_ZN4UTFT5printEPKciii+0x13c>
    1e6a:	df 91       	pop	r29
    1e6c:	cf 91       	pop	r28
    1e6e:	1f 91       	pop	r17
    1e70:	0f 91       	pop	r16
    1e72:	ff 90       	pop	r15
    1e74:	ef 90       	pop	r14
    1e76:	df 90       	pop	r13
    1e78:	cf 90       	pop	r12
    1e7a:	bf 90       	pop	r11
    1e7c:	af 90       	pop	r10
    1e7e:	9f 90       	pop	r9
    1e80:	8f 90       	pop	r8
    1e82:	7f 90       	pop	r7
    1e84:	6f 90       	pop	r6
    1e86:	5f 90       	pop	r5
    1e88:	4f 90       	pop	r4
    1e8a:	3f 90       	pop	r3
    1e8c:	2f 90       	pop	r2
    1e8e:	08 95       	ret

00001e90 <_ZN4UTFT7setFontEPKh>:

void UTFT::setFont(const uint8_t* font)
{
    1e90:	dc 01       	movw	r26, r24
	cfont.font=font;
    1e92:	1e 96       	adiw	r26, 0x0e	; 14
    1e94:	7c 93       	st	X, r23
    1e96:	6e 93       	st	-X, r22
    1e98:	1d 97       	sbiw	r26, 0x0d	; 13
	cfont.x_size=fontbyte(0);
    1e9a:	fb 01       	movw	r30, r22
    1e9c:	84 91       	lpm	r24, Z
    1e9e:	1f 96       	adiw	r26, 0x0f	; 15
    1ea0:	8c 93       	st	X, r24
    1ea2:	1f 97       	sbiw	r26, 0x0f	; 15
	cfont.y_size=fontbyte(1);
    1ea4:	31 96       	adiw	r30, 0x01	; 1
    1ea6:	e4 91       	lpm	r30, Z
    1ea8:	50 96       	adiw	r26, 0x10	; 16
    1eaa:	ec 93       	st	X, r30
    1eac:	50 97       	sbiw	r26, 0x10	; 16
	cfont.offset=fontbyte(2);
    1eae:	fb 01       	movw	r30, r22
    1eb0:	32 96       	adiw	r30, 0x02	; 2
    1eb2:	e4 91       	lpm	r30, Z
    1eb4:	51 96       	adiw	r26, 0x11	; 17
    1eb6:	ec 93       	st	X, r30
    1eb8:	51 97       	sbiw	r26, 0x11	; 17
	cfont.numchars=fontbyte(3);
    1eba:	fb 01       	movw	r30, r22
    1ebc:	33 96       	adiw	r30, 0x03	; 3
    1ebe:	64 91       	lpm	r22, Z
    1ec0:	52 96       	adiw	r26, 0x12	; 18
    1ec2:	6c 93       	st	X, r22
    1ec4:	08 95       	ret

00001ec6 <__subsf3>:
    1ec6:	50 58       	subi	r21, 0x80	; 128

00001ec8 <__addsf3>:
    1ec8:	bb 27       	eor	r27, r27
    1eca:	aa 27       	eor	r26, r26
    1ecc:	0e 94 7b 0f 	call	0x1ef6	; 0x1ef6 <__addsf3x>
    1ed0:	0c 94 8a 10 	jmp	0x2114	; 0x2114 <__fp_round>
    1ed4:	0e 94 51 10 	call	0x20a2	; 0x20a2 <__fp_pscA>
    1ed8:	38 f0       	brcs	.+14     	; 0x1ee8 <__addsf3+0x20>
    1eda:	0e 94 58 10 	call	0x20b0	; 0x20b0 <__fp_pscB>
    1ede:	20 f0       	brcs	.+8      	; 0x1ee8 <__addsf3+0x20>
    1ee0:	39 f4       	brne	.+14     	; 0x1ef0 <__addsf3+0x28>
    1ee2:	9f 3f       	cpi	r25, 0xFF	; 255
    1ee4:	19 f4       	brne	.+6      	; 0x1eec <__addsf3+0x24>
    1ee6:	26 f4       	brtc	.+8      	; 0x1ef0 <__addsf3+0x28>
    1ee8:	0c 94 4e 10 	jmp	0x209c	; 0x209c <__fp_nan>
    1eec:	0e f4       	brtc	.+2      	; 0x1ef0 <__addsf3+0x28>
    1eee:	e0 95       	com	r30
    1ef0:	e7 fb       	bst	r30, 7
    1ef2:	0c 94 48 10 	jmp	0x2090	; 0x2090 <__fp_inf>

00001ef6 <__addsf3x>:
    1ef6:	e9 2f       	mov	r30, r25
    1ef8:	0e 94 af 10 	call	0x215e	; 0x215e <__fp_split3>
    1efc:	58 f3       	brcs	.-42     	; 0x1ed4 <__addsf3+0xc>
    1efe:	ba 17       	cp	r27, r26
    1f00:	62 07       	cpc	r22, r18
    1f02:	73 07       	cpc	r23, r19
    1f04:	84 07       	cpc	r24, r20
    1f06:	95 07       	cpc	r25, r21
    1f08:	20 f0       	brcs	.+8      	; 0x1f12 <__addsf3x+0x1c>
    1f0a:	79 f4       	brne	.+30     	; 0x1f2a <__addsf3x+0x34>
    1f0c:	a6 f5       	brtc	.+104    	; 0x1f76 <__addsf3x+0x80>
    1f0e:	0c 94 d1 10 	jmp	0x21a2	; 0x21a2 <__fp_zero>
    1f12:	0e f4       	brtc	.+2      	; 0x1f16 <__addsf3x+0x20>
    1f14:	e0 95       	com	r30
    1f16:	0b 2e       	mov	r0, r27
    1f18:	ba 2f       	mov	r27, r26
    1f1a:	a0 2d       	mov	r26, r0
    1f1c:	0b 01       	movw	r0, r22
    1f1e:	b9 01       	movw	r22, r18
    1f20:	90 01       	movw	r18, r0
    1f22:	0c 01       	movw	r0, r24
    1f24:	ca 01       	movw	r24, r20
    1f26:	a0 01       	movw	r20, r0
    1f28:	11 24       	eor	r1, r1
    1f2a:	ff 27       	eor	r31, r31
    1f2c:	59 1b       	sub	r21, r25
    1f2e:	99 f0       	breq	.+38     	; 0x1f56 <__addsf3x+0x60>
    1f30:	59 3f       	cpi	r21, 0xF9	; 249
    1f32:	50 f4       	brcc	.+20     	; 0x1f48 <__addsf3x+0x52>
    1f34:	50 3e       	cpi	r21, 0xE0	; 224
    1f36:	68 f1       	brcs	.+90     	; 0x1f92 <__addsf3x+0x9c>
    1f38:	1a 16       	cp	r1, r26
    1f3a:	f0 40       	sbci	r31, 0x00	; 0
    1f3c:	a2 2f       	mov	r26, r18
    1f3e:	23 2f       	mov	r18, r19
    1f40:	34 2f       	mov	r19, r20
    1f42:	44 27       	eor	r20, r20
    1f44:	58 5f       	subi	r21, 0xF8	; 248
    1f46:	f3 cf       	rjmp	.-26     	; 0x1f2e <__addsf3x+0x38>
    1f48:	46 95       	lsr	r20
    1f4a:	37 95       	ror	r19
    1f4c:	27 95       	ror	r18
    1f4e:	a7 95       	ror	r26
    1f50:	f0 40       	sbci	r31, 0x00	; 0
    1f52:	53 95       	inc	r21
    1f54:	c9 f7       	brne	.-14     	; 0x1f48 <__addsf3x+0x52>
    1f56:	7e f4       	brtc	.+30     	; 0x1f76 <__addsf3x+0x80>
    1f58:	1f 16       	cp	r1, r31
    1f5a:	ba 0b       	sbc	r27, r26
    1f5c:	62 0b       	sbc	r22, r18
    1f5e:	73 0b       	sbc	r23, r19
    1f60:	84 0b       	sbc	r24, r20
    1f62:	ba f0       	brmi	.+46     	; 0x1f92 <__addsf3x+0x9c>
    1f64:	91 50       	subi	r25, 0x01	; 1
    1f66:	a1 f0       	breq	.+40     	; 0x1f90 <__addsf3x+0x9a>
    1f68:	ff 0f       	add	r31, r31
    1f6a:	bb 1f       	adc	r27, r27
    1f6c:	66 1f       	adc	r22, r22
    1f6e:	77 1f       	adc	r23, r23
    1f70:	88 1f       	adc	r24, r24
    1f72:	c2 f7       	brpl	.-16     	; 0x1f64 <__addsf3x+0x6e>
    1f74:	0e c0       	rjmp	.+28     	; 0x1f92 <__addsf3x+0x9c>
    1f76:	ba 0f       	add	r27, r26
    1f78:	62 1f       	adc	r22, r18
    1f7a:	73 1f       	adc	r23, r19
    1f7c:	84 1f       	adc	r24, r20
    1f7e:	48 f4       	brcc	.+18     	; 0x1f92 <__addsf3x+0x9c>
    1f80:	87 95       	ror	r24
    1f82:	77 95       	ror	r23
    1f84:	67 95       	ror	r22
    1f86:	b7 95       	ror	r27
    1f88:	f7 95       	ror	r31
    1f8a:	9e 3f       	cpi	r25, 0xFE	; 254
    1f8c:	08 f0       	brcs	.+2      	; 0x1f90 <__addsf3x+0x9a>
    1f8e:	b0 cf       	rjmp	.-160    	; 0x1ef0 <__addsf3+0x28>
    1f90:	93 95       	inc	r25
    1f92:	88 0f       	add	r24, r24
    1f94:	08 f0       	brcs	.+2      	; 0x1f98 <__addsf3x+0xa2>
    1f96:	99 27       	eor	r25, r25
    1f98:	ee 0f       	add	r30, r30
    1f9a:	97 95       	ror	r25
    1f9c:	87 95       	ror	r24
    1f9e:	08 95       	ret

00001fa0 <cos>:
    1fa0:	0e 94 61 10 	call	0x20c2	; 0x20c2 <__fp_rempio2>
    1fa4:	e3 95       	inc	r30
    1fa6:	0c 94 9b 10 	jmp	0x2136	; 0x2136 <__fp_sinus>

00001faa <__fixsfsi>:
    1faa:	0e 94 dc 0f 	call	0x1fb8	; 0x1fb8 <__fixunssfsi>
    1fae:	68 94       	set
    1fb0:	b1 11       	cpse	r27, r1
    1fb2:	0c 94 d2 10 	jmp	0x21a4	; 0x21a4 <__fp_szero>
    1fb6:	08 95       	ret

00001fb8 <__fixunssfsi>:
    1fb8:	0e 94 b7 10 	call	0x216e	; 0x216e <__fp_splitA>
    1fbc:	88 f0       	brcs	.+34     	; 0x1fe0 <__fixunssfsi+0x28>
    1fbe:	9f 57       	subi	r25, 0x7F	; 127
    1fc0:	98 f0       	brcs	.+38     	; 0x1fe8 <__fixunssfsi+0x30>
    1fc2:	b9 2f       	mov	r27, r25
    1fc4:	99 27       	eor	r25, r25
    1fc6:	b7 51       	subi	r27, 0x17	; 23
    1fc8:	b0 f0       	brcs	.+44     	; 0x1ff6 <__fixunssfsi+0x3e>
    1fca:	e1 f0       	breq	.+56     	; 0x2004 <__fixunssfsi+0x4c>
    1fcc:	66 0f       	add	r22, r22
    1fce:	77 1f       	adc	r23, r23
    1fd0:	88 1f       	adc	r24, r24
    1fd2:	99 1f       	adc	r25, r25
    1fd4:	1a f0       	brmi	.+6      	; 0x1fdc <__fixunssfsi+0x24>
    1fd6:	ba 95       	dec	r27
    1fd8:	c9 f7       	brne	.-14     	; 0x1fcc <__fixunssfsi+0x14>
    1fda:	14 c0       	rjmp	.+40     	; 0x2004 <__fixunssfsi+0x4c>
    1fdc:	b1 30       	cpi	r27, 0x01	; 1
    1fde:	91 f0       	breq	.+36     	; 0x2004 <__fixunssfsi+0x4c>
    1fe0:	0e 94 d1 10 	call	0x21a2	; 0x21a2 <__fp_zero>
    1fe4:	b1 e0       	ldi	r27, 0x01	; 1
    1fe6:	08 95       	ret
    1fe8:	0c 94 d1 10 	jmp	0x21a2	; 0x21a2 <__fp_zero>
    1fec:	67 2f       	mov	r22, r23
    1fee:	78 2f       	mov	r23, r24
    1ff0:	88 27       	eor	r24, r24
    1ff2:	b8 5f       	subi	r27, 0xF8	; 248
    1ff4:	39 f0       	breq	.+14     	; 0x2004 <__fixunssfsi+0x4c>
    1ff6:	b9 3f       	cpi	r27, 0xF9	; 249
    1ff8:	cc f3       	brlt	.-14     	; 0x1fec <__fixunssfsi+0x34>
    1ffa:	86 95       	lsr	r24
    1ffc:	77 95       	ror	r23
    1ffe:	67 95       	ror	r22
    2000:	b3 95       	inc	r27
    2002:	d9 f7       	brne	.-10     	; 0x1ffa <__fixunssfsi+0x42>
    2004:	3e f4       	brtc	.+14     	; 0x2014 <__fixunssfsi+0x5c>
    2006:	90 95       	com	r25
    2008:	80 95       	com	r24
    200a:	70 95       	com	r23
    200c:	61 95       	neg	r22
    200e:	7f 4f       	sbci	r23, 0xFF	; 255
    2010:	8f 4f       	sbci	r24, 0xFF	; 255
    2012:	9f 4f       	sbci	r25, 0xFF	; 255
    2014:	08 95       	ret

00002016 <__floatunsisf>:
    2016:	e8 94       	clt
    2018:	09 c0       	rjmp	.+18     	; 0x202c <__floatsisf+0x12>

0000201a <__floatsisf>:
    201a:	97 fb       	bst	r25, 7
    201c:	3e f4       	brtc	.+14     	; 0x202c <__floatsisf+0x12>
    201e:	90 95       	com	r25
    2020:	80 95       	com	r24
    2022:	70 95       	com	r23
    2024:	61 95       	neg	r22
    2026:	7f 4f       	sbci	r23, 0xFF	; 255
    2028:	8f 4f       	sbci	r24, 0xFF	; 255
    202a:	9f 4f       	sbci	r25, 0xFF	; 255
    202c:	99 23       	and	r25, r25
    202e:	a9 f0       	breq	.+42     	; 0x205a <__floatsisf+0x40>
    2030:	f9 2f       	mov	r31, r25
    2032:	96 e9       	ldi	r25, 0x96	; 150
    2034:	bb 27       	eor	r27, r27
    2036:	93 95       	inc	r25
    2038:	f6 95       	lsr	r31
    203a:	87 95       	ror	r24
    203c:	77 95       	ror	r23
    203e:	67 95       	ror	r22
    2040:	b7 95       	ror	r27
    2042:	f1 11       	cpse	r31, r1
    2044:	f8 cf       	rjmp	.-16     	; 0x2036 <__floatsisf+0x1c>
    2046:	fa f4       	brpl	.+62     	; 0x2086 <__floatsisf+0x6c>
    2048:	bb 0f       	add	r27, r27
    204a:	11 f4       	brne	.+4      	; 0x2050 <__floatsisf+0x36>
    204c:	60 ff       	sbrs	r22, 0
    204e:	1b c0       	rjmp	.+54     	; 0x2086 <__floatsisf+0x6c>
    2050:	6f 5f       	subi	r22, 0xFF	; 255
    2052:	7f 4f       	sbci	r23, 0xFF	; 255
    2054:	8f 4f       	sbci	r24, 0xFF	; 255
    2056:	9f 4f       	sbci	r25, 0xFF	; 255
    2058:	16 c0       	rjmp	.+44     	; 0x2086 <__floatsisf+0x6c>
    205a:	88 23       	and	r24, r24
    205c:	11 f0       	breq	.+4      	; 0x2062 <__floatsisf+0x48>
    205e:	96 e9       	ldi	r25, 0x96	; 150
    2060:	11 c0       	rjmp	.+34     	; 0x2084 <__floatsisf+0x6a>
    2062:	77 23       	and	r23, r23
    2064:	21 f0       	breq	.+8      	; 0x206e <__floatsisf+0x54>
    2066:	9e e8       	ldi	r25, 0x8E	; 142
    2068:	87 2f       	mov	r24, r23
    206a:	76 2f       	mov	r23, r22
    206c:	05 c0       	rjmp	.+10     	; 0x2078 <__floatsisf+0x5e>
    206e:	66 23       	and	r22, r22
    2070:	71 f0       	breq	.+28     	; 0x208e <__floatsisf+0x74>
    2072:	96 e8       	ldi	r25, 0x86	; 134
    2074:	86 2f       	mov	r24, r22
    2076:	70 e0       	ldi	r23, 0x00	; 0
    2078:	60 e0       	ldi	r22, 0x00	; 0
    207a:	2a f0       	brmi	.+10     	; 0x2086 <__floatsisf+0x6c>
    207c:	9a 95       	dec	r25
    207e:	66 0f       	add	r22, r22
    2080:	77 1f       	adc	r23, r23
    2082:	88 1f       	adc	r24, r24
    2084:	da f7       	brpl	.-10     	; 0x207c <__floatsisf+0x62>
    2086:	88 0f       	add	r24, r24
    2088:	96 95       	lsr	r25
    208a:	87 95       	ror	r24
    208c:	97 f9       	bld	r25, 7
    208e:	08 95       	ret

00002090 <__fp_inf>:
    2090:	97 f9       	bld	r25, 7
    2092:	9f 67       	ori	r25, 0x7F	; 127
    2094:	80 e8       	ldi	r24, 0x80	; 128
    2096:	70 e0       	ldi	r23, 0x00	; 0
    2098:	60 e0       	ldi	r22, 0x00	; 0
    209a:	08 95       	ret

0000209c <__fp_nan>:
    209c:	9f ef       	ldi	r25, 0xFF	; 255
    209e:	80 ec       	ldi	r24, 0xC0	; 192
    20a0:	08 95       	ret

000020a2 <__fp_pscA>:
    20a2:	00 24       	eor	r0, r0
    20a4:	0a 94       	dec	r0
    20a6:	16 16       	cp	r1, r22
    20a8:	17 06       	cpc	r1, r23
    20aa:	18 06       	cpc	r1, r24
    20ac:	09 06       	cpc	r0, r25
    20ae:	08 95       	ret

000020b0 <__fp_pscB>:
    20b0:	00 24       	eor	r0, r0
    20b2:	0a 94       	dec	r0
    20b4:	12 16       	cp	r1, r18
    20b6:	13 06       	cpc	r1, r19
    20b8:	14 06       	cpc	r1, r20
    20ba:	05 06       	cpc	r0, r21
    20bc:	08 95       	ret
    20be:	0c 94 4e 10 	jmp	0x209c	; 0x209c <__fp_nan>

000020c2 <__fp_rempio2>:
    20c2:	0e 94 b7 10 	call	0x216e	; 0x216e <__fp_splitA>
    20c6:	d8 f3       	brcs	.-10     	; 0x20be <__fp_pscB+0xe>
    20c8:	e8 94       	clt
    20ca:	e0 e0       	ldi	r30, 0x00	; 0
    20cc:	bb 27       	eor	r27, r27
    20ce:	9f 57       	subi	r25, 0x7F	; 127
    20d0:	f0 f0       	brcs	.+60     	; 0x210e <__fp_rempio2+0x4c>
    20d2:	2a ed       	ldi	r18, 0xDA	; 218
    20d4:	3f e0       	ldi	r19, 0x0F	; 15
    20d6:	49 ec       	ldi	r20, 0xC9	; 201
    20d8:	06 c0       	rjmp	.+12     	; 0x20e6 <__fp_rempio2+0x24>
    20da:	ee 0f       	add	r30, r30
    20dc:	bb 0f       	add	r27, r27
    20de:	66 1f       	adc	r22, r22
    20e0:	77 1f       	adc	r23, r23
    20e2:	88 1f       	adc	r24, r24
    20e4:	28 f0       	brcs	.+10     	; 0x20f0 <__fp_rempio2+0x2e>
    20e6:	b2 3a       	cpi	r27, 0xA2	; 162
    20e8:	62 07       	cpc	r22, r18
    20ea:	73 07       	cpc	r23, r19
    20ec:	84 07       	cpc	r24, r20
    20ee:	28 f0       	brcs	.+10     	; 0x20fa <__fp_rempio2+0x38>
    20f0:	b2 5a       	subi	r27, 0xA2	; 162
    20f2:	62 0b       	sbc	r22, r18
    20f4:	73 0b       	sbc	r23, r19
    20f6:	84 0b       	sbc	r24, r20
    20f8:	e3 95       	inc	r30
    20fa:	9a 95       	dec	r25
    20fc:	72 f7       	brpl	.-36     	; 0x20da <__fp_rempio2+0x18>
    20fe:	80 38       	cpi	r24, 0x80	; 128
    2100:	30 f4       	brcc	.+12     	; 0x210e <__fp_rempio2+0x4c>
    2102:	9a 95       	dec	r25
    2104:	bb 0f       	add	r27, r27
    2106:	66 1f       	adc	r22, r22
    2108:	77 1f       	adc	r23, r23
    210a:	88 1f       	adc	r24, r24
    210c:	d2 f7       	brpl	.-12     	; 0x2102 <__fp_rempio2+0x40>
    210e:	90 48       	sbci	r25, 0x80	; 128
    2110:	0c 94 4f 11 	jmp	0x229e	; 0x229e <__fp_mpack_finite>

00002114 <__fp_round>:
    2114:	09 2e       	mov	r0, r25
    2116:	03 94       	inc	r0
    2118:	00 0c       	add	r0, r0
    211a:	11 f4       	brne	.+4      	; 0x2120 <__fp_round+0xc>
    211c:	88 23       	and	r24, r24
    211e:	52 f0       	brmi	.+20     	; 0x2134 <__fp_round+0x20>
    2120:	bb 0f       	add	r27, r27
    2122:	40 f4       	brcc	.+16     	; 0x2134 <__fp_round+0x20>
    2124:	bf 2b       	or	r27, r31
    2126:	11 f4       	brne	.+4      	; 0x212c <__fp_round+0x18>
    2128:	60 ff       	sbrs	r22, 0
    212a:	04 c0       	rjmp	.+8      	; 0x2134 <__fp_round+0x20>
    212c:	6f 5f       	subi	r22, 0xFF	; 255
    212e:	7f 4f       	sbci	r23, 0xFF	; 255
    2130:	8f 4f       	sbci	r24, 0xFF	; 255
    2132:	9f 4f       	sbci	r25, 0xFF	; 255
    2134:	08 95       	ret

00002136 <__fp_sinus>:
    2136:	ef 93       	push	r30
    2138:	e0 ff       	sbrs	r30, 0
    213a:	07 c0       	rjmp	.+14     	; 0x214a <__fp_sinus+0x14>
    213c:	a2 ea       	ldi	r26, 0xA2	; 162
    213e:	2a ed       	ldi	r18, 0xDA	; 218
    2140:	3f e0       	ldi	r19, 0x0F	; 15
    2142:	49 ec       	ldi	r20, 0xC9	; 201
    2144:	5f eb       	ldi	r21, 0xBF	; 191
    2146:	0e 94 7b 0f 	call	0x1ef6	; 0x1ef6 <__addsf3x>
    214a:	0e 94 8a 10 	call	0x2114	; 0x2114 <__fp_round>
    214e:	0f 90       	pop	r0
    2150:	03 94       	inc	r0
    2152:	01 fc       	sbrc	r0, 1
    2154:	90 58       	subi	r25, 0x80	; 128
    2156:	e4 e5       	ldi	r30, 0x54	; 84
    2158:	f0 e0       	ldi	r31, 0x00	; 0
    215a:	0c 94 5b 11 	jmp	0x22b6	; 0x22b6 <__fp_powsodd>

0000215e <__fp_split3>:
    215e:	57 fd       	sbrc	r21, 7
    2160:	90 58       	subi	r25, 0x80	; 128
    2162:	44 0f       	add	r20, r20
    2164:	55 1f       	adc	r21, r21
    2166:	59 f0       	breq	.+22     	; 0x217e <__fp_splitA+0x10>
    2168:	5f 3f       	cpi	r21, 0xFF	; 255
    216a:	71 f0       	breq	.+28     	; 0x2188 <__fp_splitA+0x1a>
    216c:	47 95       	ror	r20

0000216e <__fp_splitA>:
    216e:	88 0f       	add	r24, r24
    2170:	97 fb       	bst	r25, 7
    2172:	99 1f       	adc	r25, r25
    2174:	61 f0       	breq	.+24     	; 0x218e <__fp_splitA+0x20>
    2176:	9f 3f       	cpi	r25, 0xFF	; 255
    2178:	79 f0       	breq	.+30     	; 0x2198 <__fp_splitA+0x2a>
    217a:	87 95       	ror	r24
    217c:	08 95       	ret
    217e:	12 16       	cp	r1, r18
    2180:	13 06       	cpc	r1, r19
    2182:	14 06       	cpc	r1, r20
    2184:	55 1f       	adc	r21, r21
    2186:	f2 cf       	rjmp	.-28     	; 0x216c <__fp_split3+0xe>
    2188:	46 95       	lsr	r20
    218a:	f1 df       	rcall	.-30     	; 0x216e <__fp_splitA>
    218c:	08 c0       	rjmp	.+16     	; 0x219e <__fp_splitA+0x30>
    218e:	16 16       	cp	r1, r22
    2190:	17 06       	cpc	r1, r23
    2192:	18 06       	cpc	r1, r24
    2194:	99 1f       	adc	r25, r25
    2196:	f1 cf       	rjmp	.-30     	; 0x217a <__fp_splitA+0xc>
    2198:	86 95       	lsr	r24
    219a:	71 05       	cpc	r23, r1
    219c:	61 05       	cpc	r22, r1
    219e:	08 94       	sec
    21a0:	08 95       	ret

000021a2 <__fp_zero>:
    21a2:	e8 94       	clt

000021a4 <__fp_szero>:
    21a4:	bb 27       	eor	r27, r27
    21a6:	66 27       	eor	r22, r22
    21a8:	77 27       	eor	r23, r23
    21aa:	cb 01       	movw	r24, r22
    21ac:	97 f9       	bld	r25, 7
    21ae:	08 95       	ret

000021b0 <__mulsf3>:
    21b0:	0e 94 eb 10 	call	0x21d6	; 0x21d6 <__mulsf3x>
    21b4:	0c 94 8a 10 	jmp	0x2114	; 0x2114 <__fp_round>
    21b8:	0e 94 51 10 	call	0x20a2	; 0x20a2 <__fp_pscA>
    21bc:	38 f0       	brcs	.+14     	; 0x21cc <__mulsf3+0x1c>
    21be:	0e 94 58 10 	call	0x20b0	; 0x20b0 <__fp_pscB>
    21c2:	20 f0       	brcs	.+8      	; 0x21cc <__mulsf3+0x1c>
    21c4:	95 23       	and	r25, r21
    21c6:	11 f0       	breq	.+4      	; 0x21cc <__mulsf3+0x1c>
    21c8:	0c 94 48 10 	jmp	0x2090	; 0x2090 <__fp_inf>
    21cc:	0c 94 4e 10 	jmp	0x209c	; 0x209c <__fp_nan>
    21d0:	11 24       	eor	r1, r1
    21d2:	0c 94 d2 10 	jmp	0x21a4	; 0x21a4 <__fp_szero>

000021d6 <__mulsf3x>:
    21d6:	0e 94 af 10 	call	0x215e	; 0x215e <__fp_split3>
    21da:	70 f3       	brcs	.-36     	; 0x21b8 <__mulsf3+0x8>

000021dc <__mulsf3_pse>:
    21dc:	95 9f       	mul	r25, r21
    21de:	c1 f3       	breq	.-16     	; 0x21d0 <__mulsf3+0x20>
    21e0:	95 0f       	add	r25, r21
    21e2:	50 e0       	ldi	r21, 0x00	; 0
    21e4:	55 1f       	adc	r21, r21
    21e6:	62 9f       	mul	r22, r18
    21e8:	f0 01       	movw	r30, r0
    21ea:	72 9f       	mul	r23, r18
    21ec:	bb 27       	eor	r27, r27
    21ee:	f0 0d       	add	r31, r0
    21f0:	b1 1d       	adc	r27, r1
    21f2:	63 9f       	mul	r22, r19
    21f4:	aa 27       	eor	r26, r26
    21f6:	f0 0d       	add	r31, r0
    21f8:	b1 1d       	adc	r27, r1
    21fa:	aa 1f       	adc	r26, r26
    21fc:	64 9f       	mul	r22, r20
    21fe:	66 27       	eor	r22, r22
    2200:	b0 0d       	add	r27, r0
    2202:	a1 1d       	adc	r26, r1
    2204:	66 1f       	adc	r22, r22
    2206:	82 9f       	mul	r24, r18
    2208:	22 27       	eor	r18, r18
    220a:	b0 0d       	add	r27, r0
    220c:	a1 1d       	adc	r26, r1
    220e:	62 1f       	adc	r22, r18
    2210:	73 9f       	mul	r23, r19
    2212:	b0 0d       	add	r27, r0
    2214:	a1 1d       	adc	r26, r1
    2216:	62 1f       	adc	r22, r18
    2218:	83 9f       	mul	r24, r19
    221a:	a0 0d       	add	r26, r0
    221c:	61 1d       	adc	r22, r1
    221e:	22 1f       	adc	r18, r18
    2220:	74 9f       	mul	r23, r20
    2222:	33 27       	eor	r19, r19
    2224:	a0 0d       	add	r26, r0
    2226:	61 1d       	adc	r22, r1
    2228:	23 1f       	adc	r18, r19
    222a:	84 9f       	mul	r24, r20
    222c:	60 0d       	add	r22, r0
    222e:	21 1d       	adc	r18, r1
    2230:	82 2f       	mov	r24, r18
    2232:	76 2f       	mov	r23, r22
    2234:	6a 2f       	mov	r22, r26
    2236:	11 24       	eor	r1, r1
    2238:	9f 57       	subi	r25, 0x7F	; 127
    223a:	50 40       	sbci	r21, 0x00	; 0
    223c:	9a f0       	brmi	.+38     	; 0x2264 <__mulsf3_pse+0x88>
    223e:	f1 f0       	breq	.+60     	; 0x227c <__mulsf3_pse+0xa0>
    2240:	88 23       	and	r24, r24
    2242:	4a f0       	brmi	.+18     	; 0x2256 <__mulsf3_pse+0x7a>
    2244:	ee 0f       	add	r30, r30
    2246:	ff 1f       	adc	r31, r31
    2248:	bb 1f       	adc	r27, r27
    224a:	66 1f       	adc	r22, r22
    224c:	77 1f       	adc	r23, r23
    224e:	88 1f       	adc	r24, r24
    2250:	91 50       	subi	r25, 0x01	; 1
    2252:	50 40       	sbci	r21, 0x00	; 0
    2254:	a9 f7       	brne	.-22     	; 0x2240 <__mulsf3_pse+0x64>
    2256:	9e 3f       	cpi	r25, 0xFE	; 254
    2258:	51 05       	cpc	r21, r1
    225a:	80 f0       	brcs	.+32     	; 0x227c <__mulsf3_pse+0xa0>
    225c:	0c 94 48 10 	jmp	0x2090	; 0x2090 <__fp_inf>
    2260:	0c 94 d2 10 	jmp	0x21a4	; 0x21a4 <__fp_szero>
    2264:	5f 3f       	cpi	r21, 0xFF	; 255
    2266:	e4 f3       	brlt	.-8      	; 0x2260 <__mulsf3_pse+0x84>
    2268:	98 3e       	cpi	r25, 0xE8	; 232
    226a:	d4 f3       	brlt	.-12     	; 0x2260 <__mulsf3_pse+0x84>
    226c:	86 95       	lsr	r24
    226e:	77 95       	ror	r23
    2270:	67 95       	ror	r22
    2272:	b7 95       	ror	r27
    2274:	f7 95       	ror	r31
    2276:	e7 95       	ror	r30
    2278:	9f 5f       	subi	r25, 0xFF	; 255
    227a:	c1 f7       	brne	.-16     	; 0x226c <__mulsf3_pse+0x90>
    227c:	fe 2b       	or	r31, r30
    227e:	88 0f       	add	r24, r24
    2280:	91 1d       	adc	r25, r1
    2282:	96 95       	lsr	r25
    2284:	87 95       	ror	r24
    2286:	97 f9       	bld	r25, 7
    2288:	08 95       	ret

0000228a <sin>:
    228a:	9f 93       	push	r25
    228c:	0e 94 61 10 	call	0x20c2	; 0x20c2 <__fp_rempio2>
    2290:	0f 90       	pop	r0
    2292:	07 fc       	sbrc	r0, 7
    2294:	ee 5f       	subi	r30, 0xFE	; 254
    2296:	0c 94 9b 10 	jmp	0x2136	; 0x2136 <__fp_sinus>

0000229a <__fp_mpack>:
    229a:	9f 3f       	cpi	r25, 0xFF	; 255
    229c:	31 f0       	breq	.+12     	; 0x22aa <__fp_mpack_finite+0xc>

0000229e <__fp_mpack_finite>:
    229e:	91 50       	subi	r25, 0x01	; 1
    22a0:	20 f4       	brcc	.+8      	; 0x22aa <__fp_mpack_finite+0xc>
    22a2:	87 95       	ror	r24
    22a4:	77 95       	ror	r23
    22a6:	67 95       	ror	r22
    22a8:	b7 95       	ror	r27
    22aa:	88 0f       	add	r24, r24
    22ac:	91 1d       	adc	r25, r1
    22ae:	96 95       	lsr	r25
    22b0:	87 95       	ror	r24
    22b2:	97 f9       	bld	r25, 7
    22b4:	08 95       	ret

000022b6 <__fp_powsodd>:
    22b6:	9f 93       	push	r25
    22b8:	8f 93       	push	r24
    22ba:	7f 93       	push	r23
    22bc:	6f 93       	push	r22
    22be:	ff 93       	push	r31
    22c0:	ef 93       	push	r30
    22c2:	9b 01       	movw	r18, r22
    22c4:	ac 01       	movw	r20, r24
    22c6:	0e 94 d8 10 	call	0x21b0	; 0x21b0 <__mulsf3>
    22ca:	ef 91       	pop	r30
    22cc:	ff 91       	pop	r31
    22ce:	0e 94 6f 11 	call	0x22de	; 0x22de <__fp_powser>
    22d2:	2f 91       	pop	r18
    22d4:	3f 91       	pop	r19
    22d6:	4f 91       	pop	r20
    22d8:	5f 91       	pop	r21
    22da:	0c 94 d8 10 	jmp	0x21b0	; 0x21b0 <__mulsf3>

000022de <__fp_powser>:
    22de:	df 93       	push	r29
    22e0:	cf 93       	push	r28
    22e2:	1f 93       	push	r17
    22e4:	0f 93       	push	r16
    22e6:	ff 92       	push	r15
    22e8:	ef 92       	push	r14
    22ea:	df 92       	push	r13
    22ec:	7b 01       	movw	r14, r22
    22ee:	8c 01       	movw	r16, r24
    22f0:	68 94       	set
    22f2:	06 c0       	rjmp	.+12     	; 0x2300 <__fp_powser+0x22>
    22f4:	da 2e       	mov	r13, r26
    22f6:	ef 01       	movw	r28, r30
    22f8:	0e 94 eb 10 	call	0x21d6	; 0x21d6 <__mulsf3x>
    22fc:	fe 01       	movw	r30, r28
    22fe:	e8 94       	clt
    2300:	a5 91       	lpm	r26, Z+
    2302:	25 91       	lpm	r18, Z+
    2304:	35 91       	lpm	r19, Z+
    2306:	45 91       	lpm	r20, Z+
    2308:	55 91       	lpm	r21, Z+
    230a:	a6 f3       	brts	.-24     	; 0x22f4 <__fp_powser+0x16>
    230c:	ef 01       	movw	r28, r30
    230e:	0e 94 7b 0f 	call	0x1ef6	; 0x1ef6 <__addsf3x>
    2312:	fe 01       	movw	r30, r28
    2314:	97 01       	movw	r18, r14
    2316:	a8 01       	movw	r20, r16
    2318:	da 94       	dec	r13
    231a:	69 f7       	brne	.-38     	; 0x22f6 <__fp_powser+0x18>
    231c:	df 90       	pop	r13
    231e:	ef 90       	pop	r14
    2320:	ff 90       	pop	r15
    2322:	0f 91       	pop	r16
    2324:	1f 91       	pop	r17
    2326:	cf 91       	pop	r28
    2328:	df 91       	pop	r29
    232a:	08 95       	ret

0000232c <__mulsi3>:
    232c:	db 01       	movw	r26, r22
    232e:	8f 93       	push	r24
    2330:	9f 93       	push	r25
    2332:	0e 94 dc 11 	call	0x23b8	; 0x23b8 <__muluhisi3>
    2336:	bf 91       	pop	r27
    2338:	af 91       	pop	r26
    233a:	a2 9f       	mul	r26, r18
    233c:	80 0d       	add	r24, r0
    233e:	91 1d       	adc	r25, r1
    2340:	a3 9f       	mul	r26, r19
    2342:	90 0d       	add	r25, r0
    2344:	b2 9f       	mul	r27, r18
    2346:	90 0d       	add	r25, r0
    2348:	11 24       	eor	r1, r1
    234a:	08 95       	ret

0000234c <__divmodhi4>:
    234c:	97 fb       	bst	r25, 7
    234e:	07 2e       	mov	r0, r23
    2350:	16 f4       	brtc	.+4      	; 0x2356 <__divmodhi4+0xa>
    2352:	00 94       	com	r0
    2354:	07 d0       	rcall	.+14     	; 0x2364 <__divmodhi4_neg1>
    2356:	77 fd       	sbrc	r23, 7
    2358:	09 d0       	rcall	.+18     	; 0x236c <__divmodhi4_neg2>
    235a:	0e 94 ef 11 	call	0x23de	; 0x23de <__udivmodhi4>
    235e:	07 fc       	sbrc	r0, 7
    2360:	05 d0       	rcall	.+10     	; 0x236c <__divmodhi4_neg2>
    2362:	3e f4       	brtc	.+14     	; 0x2372 <__divmodhi4_exit>

00002364 <__divmodhi4_neg1>:
    2364:	90 95       	com	r25
    2366:	81 95       	neg	r24
    2368:	9f 4f       	sbci	r25, 0xFF	; 255
    236a:	08 95       	ret

0000236c <__divmodhi4_neg2>:
    236c:	70 95       	com	r23
    236e:	61 95       	neg	r22
    2370:	7f 4f       	sbci	r23, 0xFF	; 255

00002372 <__divmodhi4_exit>:
    2372:	08 95       	ret

00002374 <__udivmodsi4>:
    2374:	a1 e2       	ldi	r26, 0x21	; 33
    2376:	1a 2e       	mov	r1, r26
    2378:	aa 1b       	sub	r26, r26
    237a:	bb 1b       	sub	r27, r27
    237c:	fd 01       	movw	r30, r26
    237e:	0d c0       	rjmp	.+26     	; 0x239a <__udivmodsi4_ep>

00002380 <__udivmodsi4_loop>:
    2380:	aa 1f       	adc	r26, r26
    2382:	bb 1f       	adc	r27, r27
    2384:	ee 1f       	adc	r30, r30
    2386:	ff 1f       	adc	r31, r31
    2388:	a2 17       	cp	r26, r18
    238a:	b3 07       	cpc	r27, r19
    238c:	e4 07       	cpc	r30, r20
    238e:	f5 07       	cpc	r31, r21
    2390:	20 f0       	brcs	.+8      	; 0x239a <__udivmodsi4_ep>
    2392:	a2 1b       	sub	r26, r18
    2394:	b3 0b       	sbc	r27, r19
    2396:	e4 0b       	sbc	r30, r20
    2398:	f5 0b       	sbc	r31, r21

0000239a <__udivmodsi4_ep>:
    239a:	66 1f       	adc	r22, r22
    239c:	77 1f       	adc	r23, r23
    239e:	88 1f       	adc	r24, r24
    23a0:	99 1f       	adc	r25, r25
    23a2:	1a 94       	dec	r1
    23a4:	69 f7       	brne	.-38     	; 0x2380 <__udivmodsi4_loop>
    23a6:	60 95       	com	r22
    23a8:	70 95       	com	r23
    23aa:	80 95       	com	r24
    23ac:	90 95       	com	r25
    23ae:	9b 01       	movw	r18, r22
    23b0:	ac 01       	movw	r20, r24
    23b2:	bd 01       	movw	r22, r26
    23b4:	cf 01       	movw	r24, r30
    23b6:	08 95       	ret

000023b8 <__muluhisi3>:
    23b8:	0e 94 09 12 	call	0x2412	; 0x2412 <__umulhisi3>
    23bc:	a5 9f       	mul	r26, r21
    23be:	90 0d       	add	r25, r0
    23c0:	b4 9f       	mul	r27, r20
    23c2:	90 0d       	add	r25, r0
    23c4:	a4 9f       	mul	r26, r20
    23c6:	80 0d       	add	r24, r0
    23c8:	91 1d       	adc	r25, r1
    23ca:	11 24       	eor	r1, r1
    23cc:	08 95       	ret

000023ce <__mulshisi3>:
    23ce:	b7 ff       	sbrs	r27, 7
    23d0:	0c 94 dc 11 	jmp	0x23b8	; 0x23b8 <__muluhisi3>

000023d4 <__mulohisi3>:
    23d4:	0e 94 dc 11 	call	0x23b8	; 0x23b8 <__muluhisi3>
    23d8:	82 1b       	sub	r24, r18
    23da:	93 0b       	sbc	r25, r19
    23dc:	08 95       	ret

000023de <__udivmodhi4>:
    23de:	aa 1b       	sub	r26, r26
    23e0:	bb 1b       	sub	r27, r27
    23e2:	51 e1       	ldi	r21, 0x11	; 17
    23e4:	07 c0       	rjmp	.+14     	; 0x23f4 <__udivmodhi4_ep>

000023e6 <__udivmodhi4_loop>:
    23e6:	aa 1f       	adc	r26, r26
    23e8:	bb 1f       	adc	r27, r27
    23ea:	a6 17       	cp	r26, r22
    23ec:	b7 07       	cpc	r27, r23
    23ee:	10 f0       	brcs	.+4      	; 0x23f4 <__udivmodhi4_ep>
    23f0:	a6 1b       	sub	r26, r22
    23f2:	b7 0b       	sbc	r27, r23

000023f4 <__udivmodhi4_ep>:
    23f4:	88 1f       	adc	r24, r24
    23f6:	99 1f       	adc	r25, r25
    23f8:	5a 95       	dec	r21
    23fa:	a9 f7       	brne	.-22     	; 0x23e6 <__udivmodhi4_loop>
    23fc:	80 95       	com	r24
    23fe:	90 95       	com	r25
    2400:	bc 01       	movw	r22, r24
    2402:	cd 01       	movw	r24, r26
    2404:	08 95       	ret

00002406 <__tablejump2__>:
    2406:	ee 0f       	add	r30, r30
    2408:	ff 1f       	adc	r31, r31
    240a:	05 90       	lpm	r0, Z+
    240c:	f4 91       	lpm	r31, Z
    240e:	e0 2d       	mov	r30, r0
    2410:	09 94       	ijmp

00002412 <__umulhisi3>:
    2412:	a2 9f       	mul	r26, r18
    2414:	b0 01       	movw	r22, r0
    2416:	b3 9f       	mul	r27, r19
    2418:	c0 01       	movw	r24, r0
    241a:	a3 9f       	mul	r26, r19
    241c:	70 0d       	add	r23, r0
    241e:	81 1d       	adc	r24, r1
    2420:	11 24       	eor	r1, r1
    2422:	91 1d       	adc	r25, r1
    2424:	b2 9f       	mul	r27, r18
    2426:	70 0d       	add	r23, r0
    2428:	81 1d       	adc	r24, r1
    242a:	11 24       	eor	r1, r1
    242c:	91 1d       	adc	r25, r1
    242e:	08 95       	ret

00002430 <do_rand>:
    2430:	8f 92       	push	r8
    2432:	9f 92       	push	r9
    2434:	af 92       	push	r10
    2436:	bf 92       	push	r11
    2438:	cf 92       	push	r12
    243a:	df 92       	push	r13
    243c:	ef 92       	push	r14
    243e:	ff 92       	push	r15
    2440:	cf 93       	push	r28
    2442:	df 93       	push	r29
    2444:	ec 01       	movw	r28, r24
    2446:	68 81       	ld	r22, Y
    2448:	79 81       	ldd	r23, Y+1	; 0x01
    244a:	8a 81       	ldd	r24, Y+2	; 0x02
    244c:	9b 81       	ldd	r25, Y+3	; 0x03
    244e:	61 15       	cp	r22, r1
    2450:	71 05       	cpc	r23, r1
    2452:	81 05       	cpc	r24, r1
    2454:	91 05       	cpc	r25, r1
    2456:	21 f4       	brne	.+8      	; 0x2460 <do_rand+0x30>
    2458:	64 e2       	ldi	r22, 0x24	; 36
    245a:	79 ed       	ldi	r23, 0xD9	; 217
    245c:	8b e5       	ldi	r24, 0x5B	; 91
    245e:	97 e0       	ldi	r25, 0x07	; 7
    2460:	2d e1       	ldi	r18, 0x1D	; 29
    2462:	33 ef       	ldi	r19, 0xF3	; 243
    2464:	41 e0       	ldi	r20, 0x01	; 1
    2466:	50 e0       	ldi	r21, 0x00	; 0
    2468:	0e 94 74 12 	call	0x24e8	; 0x24e8 <__divmodsi4>
    246c:	49 01       	movw	r8, r18
    246e:	5a 01       	movw	r10, r20
    2470:	9b 01       	movw	r18, r22
    2472:	ac 01       	movw	r20, r24
    2474:	a7 ea       	ldi	r26, 0xA7	; 167
    2476:	b1 e4       	ldi	r27, 0x41	; 65
    2478:	0e 94 dc 11 	call	0x23b8	; 0x23b8 <__muluhisi3>
    247c:	6b 01       	movw	r12, r22
    247e:	7c 01       	movw	r14, r24
    2480:	ac ee       	ldi	r26, 0xEC	; 236
    2482:	b4 ef       	ldi	r27, 0xF4	; 244
    2484:	a5 01       	movw	r20, r10
    2486:	94 01       	movw	r18, r8
    2488:	0e 94 ea 11 	call	0x23d4	; 0x23d4 <__mulohisi3>
    248c:	dc 01       	movw	r26, r24
    248e:	cb 01       	movw	r24, r22
    2490:	8c 0d       	add	r24, r12
    2492:	9d 1d       	adc	r25, r13
    2494:	ae 1d       	adc	r26, r14
    2496:	bf 1d       	adc	r27, r15
    2498:	b7 ff       	sbrs	r27, 7
    249a:	03 c0       	rjmp	.+6      	; 0x24a2 <do_rand+0x72>
    249c:	01 97       	sbiw	r24, 0x01	; 1
    249e:	a1 09       	sbc	r26, r1
    24a0:	b0 48       	sbci	r27, 0x80	; 128
    24a2:	88 83       	st	Y, r24
    24a4:	99 83       	std	Y+1, r25	; 0x01
    24a6:	aa 83       	std	Y+2, r26	; 0x02
    24a8:	bb 83       	std	Y+3, r27	; 0x03
    24aa:	9f 77       	andi	r25, 0x7F	; 127
    24ac:	df 91       	pop	r29
    24ae:	cf 91       	pop	r28
    24b0:	ff 90       	pop	r15
    24b2:	ef 90       	pop	r14
    24b4:	df 90       	pop	r13
    24b6:	cf 90       	pop	r12
    24b8:	bf 90       	pop	r11
    24ba:	af 90       	pop	r10
    24bc:	9f 90       	pop	r9
    24be:	8f 90       	pop	r8
    24c0:	08 95       	ret

000024c2 <rand_r>:
    24c2:	0e 94 18 12 	call	0x2430	; 0x2430 <do_rand>
    24c6:	08 95       	ret

000024c8 <rand>:
    24c8:	80 e6       	ldi	r24, 0x60	; 96
    24ca:	90 e0       	ldi	r25, 0x00	; 0
    24cc:	0e 94 18 12 	call	0x2430	; 0x2430 <do_rand>
    24d0:	08 95       	ret

000024d2 <srand>:
    24d2:	a0 e0       	ldi	r26, 0x00	; 0
    24d4:	b0 e0       	ldi	r27, 0x00	; 0
    24d6:	80 93 60 00 	sts	0x0060, r24	; 0x800060 <__DATA_REGION_ORIGIN__>
    24da:	90 93 61 00 	sts	0x0061, r25	; 0x800061 <__DATA_REGION_ORIGIN__+0x1>
    24de:	a0 93 62 00 	sts	0x0062, r26	; 0x800062 <__DATA_REGION_ORIGIN__+0x2>
    24e2:	b0 93 63 00 	sts	0x0063, r27	; 0x800063 <__DATA_REGION_ORIGIN__+0x3>
    24e6:	08 95       	ret

000024e8 <__divmodsi4>:
    24e8:	05 2e       	mov	r0, r21
    24ea:	97 fb       	bst	r25, 7
    24ec:	1e f4       	brtc	.+6      	; 0x24f4 <__divmodsi4+0xc>
    24ee:	00 94       	com	r0
    24f0:	0e 94 8b 12 	call	0x2516	; 0x2516 <__negsi2>
    24f4:	57 fd       	sbrc	r21, 7
    24f6:	07 d0       	rcall	.+14     	; 0x2506 <__divmodsi4_neg2>
    24f8:	0e 94 ba 11 	call	0x2374	; 0x2374 <__udivmodsi4>
    24fc:	07 fc       	sbrc	r0, 7
    24fe:	03 d0       	rcall	.+6      	; 0x2506 <__divmodsi4_neg2>
    2500:	4e f4       	brtc	.+18     	; 0x2514 <__divmodsi4_exit>
    2502:	0c 94 8b 12 	jmp	0x2516	; 0x2516 <__negsi2>

00002506 <__divmodsi4_neg2>:
    2506:	50 95       	com	r21
    2508:	40 95       	com	r20
    250a:	30 95       	com	r19
    250c:	21 95       	neg	r18
    250e:	3f 4f       	sbci	r19, 0xFF	; 255
    2510:	4f 4f       	sbci	r20, 0xFF	; 255
    2512:	5f 4f       	sbci	r21, 0xFF	; 255

00002514 <__divmodsi4_exit>:
    2514:	08 95       	ret

00002516 <__negsi2>:
    2516:	90 95       	com	r25
    2518:	80 95       	com	r24
    251a:	70 95       	com	r23
    251c:	61 95       	neg	r22
    251e:	7f 4f       	sbci	r23, 0xFF	; 255
    2520:	8f 4f       	sbci	r24, 0xFF	; 255
    2522:	9f 4f       	sbci	r25, 0xFF	; 255
    2524:	08 95       	ret

00002526 <_exit>:
    2526:	f8 94       	cli

00002528 <__stop_program>:
    2528:	ff cf       	rjmp	.-2      	; 0x2528 <__stop_program>
